
./proxy:     file format elf64-x86-64


Disassembly of section .init:

0000000000401980 <_init>:
_init():
  401980:	48 83 ec 08          	sub    $0x8,%rsp
  401984:	48 8b 05 6d 56 20 00 	mov    0x20566d(%rip),%rax        # 606ff8 <_DYNAMIC+0x1e0>
  40198b:	48 85 c0             	test   %rax,%rax
  40198e:	74 05                	je     401995 <_init+0x15>
  401990:	e8 db 05 00 00       	callq  401f70 <socket@plt+0x10>
  401995:	48 83 c4 08          	add    $0x8,%rsp
  401999:	c3                   	retq   

Disassembly of section .plt:

00000000004019a0 <inet_ntop@plt-0x10>:
  4019a0:	ff 35 62 56 20 00    	pushq  0x205662(%rip)        # 607008 <_GLOBAL_OFFSET_TABLE_+0x8>
  4019a6:	ff 25 64 56 20 00    	jmpq   *0x205664(%rip)        # 607010 <_GLOBAL_OFFSET_TABLE_+0x10>
  4019ac:	0f 1f 40 00          	nopl   0x0(%rax)

00000000004019b0 <inet_ntop@plt>:
  4019b0:	ff 25 62 56 20 00    	jmpq   *0x205662(%rip)        # 607018 <_GLOBAL_OFFSET_TABLE_+0x18>
  4019b6:	68 00 00 00 00       	pushq  $0x0
  4019bb:	e9 e0 ff ff ff       	jmpq   4019a0 <_init+0x20>

00000000004019c0 <sigprocmask@plt>:
  4019c0:	ff 25 5a 56 20 00    	jmpq   *0x20565a(%rip)        # 607020 <_GLOBAL_OFFSET_TABLE_+0x20>
  4019c6:	68 01 00 00 00       	pushq  $0x1
  4019cb:	e9 d0 ff ff ff       	jmpq   4019a0 <_init+0x20>

00000000004019d0 <free@plt>:
  4019d0:	ff 25 52 56 20 00    	jmpq   *0x205652(%rip)        # 607028 <_GLOBAL_OFFSET_TABLE_+0x28>
  4019d6:	68 02 00 00 00       	pushq  $0x2
  4019db:	e9 c0 ff ff ff       	jmpq   4019a0 <_init+0x20>

00000000004019e0 <pthread_create@plt>:
  4019e0:	ff 25 4a 56 20 00    	jmpq   *0x20564a(%rip)        # 607030 <_GLOBAL_OFFSET_TABLE_+0x30>
  4019e6:	68 03 00 00 00       	pushq  $0x3
  4019eb:	e9 b0 ff ff ff       	jmpq   4019a0 <_init+0x20>

00000000004019f0 <strcasecmp@plt>:
  4019f0:	ff 25 42 56 20 00    	jmpq   *0x205642(%rip)        # 607038 <_GLOBAL_OFFSET_TABLE_+0x38>
  4019f6:	68 04 00 00 00       	pushq  $0x4
  4019fb:	e9 a0 ff ff ff       	jmpq   4019a0 <_init+0x20>

0000000000401a00 <pthread_detach@plt>:
  401a00:	ff 25 3a 56 20 00    	jmpq   *0x20563a(%rip)        # 607040 <_GLOBAL_OFFSET_TABLE_+0x40>
  401a06:	68 05 00 00 00       	pushq  $0x5
  401a0b:	e9 90 ff ff ff       	jmpq   4019a0 <_init+0x20>

0000000000401a10 <__errno_location@plt>:
  401a10:	ff 25 32 56 20 00    	jmpq   *0x205632(%rip)        # 607048 <_GLOBAL_OFFSET_TABLE_+0x48>
  401a16:	68 06 00 00 00       	pushq  $0x6
  401a1b:	e9 80 ff ff ff       	jmpq   4019a0 <_init+0x20>

0000000000401a20 <strncpy@plt>:
  401a20:	ff 25 2a 56 20 00    	jmpq   *0x20562a(%rip)        # 607050 <_GLOBAL_OFFSET_TABLE_+0x50>
  401a26:	68 07 00 00 00       	pushq  $0x7
  401a2b:	e9 70 ff ff ff       	jmpq   4019a0 <_init+0x20>

0000000000401a30 <strncmp@plt>:
  401a30:	ff 25 22 56 20 00    	jmpq   *0x205622(%rip)        # 607058 <_GLOBAL_OFFSET_TABLE_+0x58>
  401a36:	68 08 00 00 00       	pushq  $0x8
  401a3b:	e9 60 ff ff ff       	jmpq   4019a0 <_init+0x20>

0000000000401a40 <_exit@plt>:
  401a40:	ff 25 1a 56 20 00    	jmpq   *0x20561a(%rip)        # 607060 <_GLOBAL_OFFSET_TABLE_+0x60>
  401a46:	68 09 00 00 00       	pushq  $0x9
  401a4b:	e9 50 ff ff ff       	jmpq   4019a0 <_init+0x20>

0000000000401a50 <puts@plt>:
  401a50:	ff 25 12 56 20 00    	jmpq   *0x205612(%rip)        # 607068 <_GLOBAL_OFFSET_TABLE_+0x68>
  401a56:	68 0a 00 00 00       	pushq  $0xa
  401a5b:	e9 40 ff ff ff       	jmpq   4019a0 <_init+0x20>

0000000000401a60 <ferror@plt>:
  401a60:	ff 25 0a 56 20 00    	jmpq   *0x20560a(%rip)        # 607070 <_GLOBAL_OFFSET_TABLE_+0x70>
  401a66:	68 0b 00 00 00       	pushq  $0xb
  401a6b:	e9 30 ff ff ff       	jmpq   4019a0 <_init+0x20>

0000000000401a70 <pthread_cancel@plt>:
  401a70:	ff 25 02 56 20 00    	jmpq   *0x205602(%rip)        # 607078 <_GLOBAL_OFFSET_TABLE_+0x78>
  401a76:	68 0c 00 00 00       	pushq  $0xc
  401a7b:	e9 20 ff ff ff       	jmpq   4019a0 <_init+0x20>

0000000000401a80 <sigaction@plt>:
  401a80:	ff 25 fa 55 20 00    	jmpq   *0x2055fa(%rip)        # 607080 <_GLOBAL_OFFSET_TABLE_+0x80>
  401a86:	68 0d 00 00 00       	pushq  $0xd
  401a8b:	e9 10 ff ff ff       	jmpq   4019a0 <_init+0x20>

0000000000401a90 <fread@plt>:
  401a90:	ff 25 f2 55 20 00    	jmpq   *0x2055f2(%rip)        # 607088 <_GLOBAL_OFFSET_TABLE_+0x88>
  401a96:	68 0e 00 00 00       	pushq  $0xe
  401a9b:	e9 00 ff ff ff       	jmpq   4019a0 <_init+0x20>

0000000000401aa0 <setsockopt@plt>:
  401aa0:	ff 25 ea 55 20 00    	jmpq   *0x2055ea(%rip)        # 607090 <_GLOBAL_OFFSET_TABLE_+0x90>
  401aa6:	68 0f 00 00 00       	pushq  $0xf
  401aab:	e9 f0 fe ff ff       	jmpq   4019a0 <_init+0x20>

0000000000401ab0 <write@plt>:
  401ab0:	ff 25 e2 55 20 00    	jmpq   *0x2055e2(%rip)        # 607098 <_GLOBAL_OFFSET_TABLE_+0x98>
  401ab6:	68 10 00 00 00       	pushq  $0x10
  401abb:	e9 e0 fe ff ff       	jmpq   4019a0 <_init+0x20>

0000000000401ac0 <pthread_once@plt>:
  401ac0:	ff 25 da 55 20 00    	jmpq   *0x2055da(%rip)        # 6070a0 <_GLOBAL_OFFSET_TABLE_+0xa0>
  401ac6:	68 11 00 00 00       	pushq  $0x11
  401acb:	e9 d0 fe ff ff       	jmpq   4019a0 <_init+0x20>

0000000000401ad0 <fclose@plt>:
  401ad0:	ff 25 d2 55 20 00    	jmpq   *0x2055d2(%rip)        # 6070a8 <_GLOBAL_OFFSET_TABLE_+0xa8>
  401ad6:	68 12 00 00 00       	pushq  $0x12
  401adb:	e9 c0 fe ff ff       	jmpq   4019a0 <_init+0x20>

0000000000401ae0 <opendir@plt>:
  401ae0:	ff 25 ca 55 20 00    	jmpq   *0x2055ca(%rip)        # 6070b0 <_GLOBAL_OFFSET_TABLE_+0xb0>
  401ae6:	68 13 00 00 00       	pushq  $0x13
  401aeb:	e9 b0 fe ff ff       	jmpq   4019a0 <_init+0x20>

0000000000401af0 <strlen@plt>:
  401af0:	ff 25 c2 55 20 00    	jmpq   *0x2055c2(%rip)        # 6070b8 <_GLOBAL_OFFSET_TABLE_+0xb8>
  401af6:	68 14 00 00 00       	pushq  $0x14
  401afb:	e9 a0 fe ff ff       	jmpq   4019a0 <_init+0x20>

0000000000401b00 <__stack_chk_fail@plt>:
  401b00:	ff 25 ba 55 20 00    	jmpq   *0x2055ba(%rip)        # 6070c0 <_GLOBAL_OFFSET_TABLE_+0xc0>
  401b06:	68 15 00 00 00       	pushq  $0x15
  401b0b:	e9 90 fe ff ff       	jmpq   4019a0 <_init+0x20>

0000000000401b10 <mmap@plt>:
  401b10:	ff 25 b2 55 20 00    	jmpq   *0x2055b2(%rip)        # 6070c8 <_GLOBAL_OFFSET_TABLE_+0xc8>
  401b16:	68 16 00 00 00       	pushq  $0x16
  401b1b:	e9 80 fe ff ff       	jmpq   4019a0 <_init+0x20>

0000000000401b20 <htons@plt>:
  401b20:	ff 25 aa 55 20 00    	jmpq   *0x2055aa(%rip)        # 6070d0 <_GLOBAL_OFFSET_TABLE_+0xd0>
  401b26:	68 17 00 00 00       	pushq  $0x17
  401b2b:	e9 70 fe ff ff       	jmpq   4019a0 <_init+0x20>

0000000000401b30 <dup2@plt>:
  401b30:	ff 25 a2 55 20 00    	jmpq   *0x2055a2(%rip)        # 6070d8 <_GLOBAL_OFFSET_TABLE_+0xd8>
  401b36:	68 18 00 00 00       	pushq  $0x18
  401b3b:	e9 60 fe ff ff       	jmpq   4019a0 <_init+0x20>

0000000000401b40 <printf@plt>:
  401b40:	ff 25 9a 55 20 00    	jmpq   *0x20559a(%rip)        # 6070e0 <_GLOBAL_OFFSET_TABLE_+0xe0>
  401b46:	68 19 00 00 00       	pushq  $0x19
  401b4b:	e9 50 fe ff ff       	jmpq   4019a0 <_init+0x20>

0000000000401b50 <gai_strerror@plt>:
  401b50:	ff 25 92 55 20 00    	jmpq   *0x205592(%rip)        # 6070e8 <_GLOBAL_OFFSET_TABLE_+0xe8>
  401b56:	68 1a 00 00 00       	pushq  $0x1a
  401b5b:	e9 40 fe ff ff       	jmpq   4019a0 <_init+0x20>

0000000000401b60 <lseek@plt>:
  401b60:	ff 25 8a 55 20 00    	jmpq   *0x20558a(%rip)        # 6070f0 <_GLOBAL_OFFSET_TABLE_+0xf0>
  401b66:	68 1b 00 00 00       	pushq  $0x1b
  401b6b:	e9 30 fe ff ff       	jmpq   4019a0 <_init+0x20>

0000000000401b70 <fputs@plt>:
  401b70:	ff 25 82 55 20 00    	jmpq   *0x205582(%rip)        # 6070f8 <_GLOBAL_OFFSET_TABLE_+0xf8>
  401b76:	68 1c 00 00 00       	pushq  $0x1c
  401b7b:	e9 20 fe ff ff       	jmpq   4019a0 <_init+0x20>

0000000000401b80 <memset@plt>:
  401b80:	ff 25 7a 55 20 00    	jmpq   *0x20557a(%rip)        # 607100 <_GLOBAL_OFFSET_TABLE_+0x100>
  401b86:	68 1d 00 00 00       	pushq  $0x1d
  401b8b:	e9 10 fe ff ff       	jmpq   4019a0 <_init+0x20>

0000000000401b90 <alarm@plt>:
  401b90:	ff 25 72 55 20 00    	jmpq   *0x205572(%rip)        # 607108 <_GLOBAL_OFFSET_TABLE_+0x108>
  401b96:	68 1e 00 00 00       	pushq  $0x1e
  401b9b:	e9 00 fe ff ff       	jmpq   4019a0 <_init+0x20>

0000000000401ba0 <close@plt>:
  401ba0:	ff 25 6a 55 20 00    	jmpq   *0x20556a(%rip)        # 607110 <_GLOBAL_OFFSET_TABLE_+0x110>
  401ba6:	68 1f 00 00 00       	pushq  $0x1f
  401bab:	e9 f0 fd ff ff       	jmpq   4019a0 <_init+0x20>

0000000000401bb0 <getnameinfo@plt>:
  401bb0:	ff 25 62 55 20 00    	jmpq   *0x205562(%rip)        # 607118 <_GLOBAL_OFFSET_TABLE_+0x118>
  401bb6:	68 20 00 00 00       	pushq  $0x20
  401bbb:	e9 e0 fd ff ff       	jmpq   4019a0 <_init+0x20>

0000000000401bc0 <closedir@plt>:
  401bc0:	ff 25 5a 55 20 00    	jmpq   *0x20555a(%rip)        # 607120 <_GLOBAL_OFFSET_TABLE_+0x120>
  401bc6:	68 21 00 00 00       	pushq  $0x21
  401bcb:	e9 d0 fd ff ff       	jmpq   4019a0 <_init+0x20>

0000000000401bd0 <strtok_r@plt>:
  401bd0:	ff 25 52 55 20 00    	jmpq   *0x205552(%rip)        # 607128 <_GLOBAL_OFFSET_TABLE_+0x128>
  401bd6:	68 22 00 00 00       	pushq  $0x22
  401bdb:	e9 c0 fd ff ff       	jmpq   4019a0 <_init+0x20>

0000000000401be0 <read@plt>:
  401be0:	ff 25 4a 55 20 00    	jmpq   *0x20554a(%rip)        # 607130 <_GLOBAL_OFFSET_TABLE_+0x130>
  401be6:	68 23 00 00 00       	pushq  $0x23
  401beb:	e9 b0 fd ff ff       	jmpq   4019a0 <_init+0x20>

0000000000401bf0 <__libc_start_main@plt>:
  401bf0:	ff 25 42 55 20 00    	jmpq   *0x205542(%rip)        # 607138 <_GLOBAL_OFFSET_TABLE_+0x138>
  401bf6:	68 24 00 00 00       	pushq  $0x24
  401bfb:	e9 a0 fd ff ff       	jmpq   4019a0 <_init+0x20>

0000000000401c00 <fgets@plt>:
  401c00:	ff 25 3a 55 20 00    	jmpq   *0x20553a(%rip)        # 607140 <_GLOBAL_OFFSET_TABLE_+0x140>
  401c06:	68 25 00 00 00       	pushq  $0x25
  401c0b:	e9 90 fd ff ff       	jmpq   4019a0 <_init+0x20>

0000000000401c10 <execve@plt>:
  401c10:	ff 25 32 55 20 00    	jmpq   *0x205532(%rip)        # 607148 <_GLOBAL_OFFSET_TABLE_+0x148>
  401c16:	68 26 00 00 00       	pushq  $0x26
  401c1b:	e9 80 fd ff ff       	jmpq   4019a0 <_init+0x20>

0000000000401c20 <calloc@plt>:
  401c20:	ff 25 2a 55 20 00    	jmpq   *0x20552a(%rip)        # 607150 <_GLOBAL_OFFSET_TABLE_+0x150>
  401c26:	68 27 00 00 00       	pushq  $0x27
  401c2b:	e9 70 fd ff ff       	jmpq   4019a0 <_init+0x20>

0000000000401c30 <strcmp@plt>:
  401c30:	ff 25 22 55 20 00    	jmpq   *0x205522(%rip)        # 607158 <_GLOBAL_OFFSET_TABLE_+0x158>
  401c36:	68 28 00 00 00       	pushq  $0x28
  401c3b:	e9 60 fd ff ff       	jmpq   4019a0 <_init+0x20>

0000000000401c40 <gethostbyname@plt>:
  401c40:	ff 25 1a 55 20 00    	jmpq   *0x20551a(%rip)        # 607160 <_GLOBAL_OFFSET_TABLE_+0x160>
  401c46:	68 29 00 00 00       	pushq  $0x29
  401c4b:	e9 50 fd ff ff       	jmpq   4019a0 <_init+0x20>

0000000000401c50 <sem_wait@plt>:
  401c50:	ff 25 12 55 20 00    	jmpq   *0x205512(%rip)        # 607168 <_GLOBAL_OFFSET_TABLE_+0x168>
  401c56:	68 2a 00 00 00       	pushq  $0x2a
  401c5b:	e9 40 fd ff ff       	jmpq   4019a0 <_init+0x20>

0000000000401c60 <fprintf@plt>:
  401c60:	ff 25 0a 55 20 00    	jmpq   *0x20550a(%rip)        # 607170 <_GLOBAL_OFFSET_TABLE_+0x170>
  401c66:	68 2b 00 00 00       	pushq  $0x2b
  401c6b:	e9 30 fd ff ff       	jmpq   4019a0 <_init+0x20>

0000000000401c70 <sigemptyset@plt>:
  401c70:	ff 25 02 55 20 00    	jmpq   *0x205502(%rip)        # 607178 <_GLOBAL_OFFSET_TABLE_+0x178>
  401c76:	68 2c 00 00 00       	pushq  $0x2c
  401c7b:	e9 20 fd ff ff       	jmpq   4019a0 <_init+0x20>

0000000000401c80 <sigfillset@plt>:
  401c80:	ff 25 fa 54 20 00    	jmpq   *0x2054fa(%rip)        # 607180 <_GLOBAL_OFFSET_TABLE_+0x180>
  401c86:	68 2d 00 00 00       	pushq  $0x2d
  401c8b:	e9 10 fd ff ff       	jmpq   4019a0 <_init+0x20>

0000000000401c90 <memcpy@plt>:
  401c90:	ff 25 f2 54 20 00    	jmpq   *0x2054f2(%rip)        # 607188 <_GLOBAL_OFFSET_TABLE_+0x188>
  401c96:	68 2e 00 00 00       	pushq  $0x2e
  401c9b:	e9 00 fd ff ff       	jmpq   4019a0 <_init+0x20>

0000000000401ca0 <inet_pton@plt>:
  401ca0:	ff 25 ea 54 20 00    	jmpq   *0x2054ea(%rip)        # 607190 <_GLOBAL_OFFSET_TABLE_+0x190>
  401ca6:	68 2f 00 00 00       	pushq  $0x2f
  401cab:	e9 f0 fc ff ff       	jmpq   4019a0 <_init+0x20>

0000000000401cb0 <kill@plt>:
  401cb0:	ff 25 e2 54 20 00    	jmpq   *0x2054e2(%rip)        # 607198 <_GLOBAL_OFFSET_TABLE_+0x198>
  401cb6:	68 30 00 00 00       	pushq  $0x30
  401cbb:	e9 e0 fc ff ff       	jmpq   4019a0 <_init+0x20>

0000000000401cc0 <select@plt>:
  401cc0:	ff 25 da 54 20 00    	jmpq   *0x2054da(%rip)        # 6071a0 <_GLOBAL_OFFSET_TABLE_+0x1a0>
  401cc6:	68 31 00 00 00       	pushq  $0x31
  401ccb:	e9 d0 fc ff ff       	jmpq   4019a0 <_init+0x20>

0000000000401cd0 <__xstat@plt>:
  401cd0:	ff 25 d2 54 20 00    	jmpq   *0x2054d2(%rip)        # 6071a8 <_GLOBAL_OFFSET_TABLE_+0x1a8>
  401cd6:	68 32 00 00 00       	pushq  $0x32
  401cdb:	e9 c0 fc ff ff       	jmpq   4019a0 <_init+0x20>

0000000000401ce0 <readdir@plt>:
  401ce0:	ff 25 ca 54 20 00    	jmpq   *0x2054ca(%rip)        # 6071b0 <_GLOBAL_OFFSET_TABLE_+0x1b0>
  401ce6:	68 33 00 00 00       	pushq  $0x33
  401ceb:	e9 b0 fc ff ff       	jmpq   4019a0 <_init+0x20>

0000000000401cf0 <pause@plt>:
  401cf0:	ff 25 c2 54 20 00    	jmpq   *0x2054c2(%rip)        # 6071b8 <_GLOBAL_OFFSET_TABLE_+0x1b8>
  401cf6:	68 34 00 00 00       	pushq  $0x34
  401cfb:	e9 a0 fc ff ff       	jmpq   4019a0 <_init+0x20>

0000000000401d00 <pthread_exit@plt>:
  401d00:	ff 25 ba 54 20 00    	jmpq   *0x2054ba(%rip)        # 6071c0 <_GLOBAL_OFFSET_TABLE_+0x1c0>
  401d06:	68 35 00 00 00       	pushq  $0x35
  401d0b:	e9 90 fc ff ff       	jmpq   4019a0 <_init+0x20>

0000000000401d10 <malloc@plt>:
  401d10:	ff 25 b2 54 20 00    	jmpq   *0x2054b2(%rip)        # 6071c8 <_GLOBAL_OFFSET_TABLE_+0x1c8>
  401d16:	68 36 00 00 00       	pushq  $0x36
  401d1b:	e9 80 fc ff ff       	jmpq   4019a0 <_init+0x20>

0000000000401d20 <__fxstat@plt>:
  401d20:	ff 25 aa 54 20 00    	jmpq   *0x2054aa(%rip)        # 6071d0 <_GLOBAL_OFFSET_TABLE_+0x1d0>
  401d26:	68 37 00 00 00       	pushq  $0x37
  401d2b:	e9 70 fc ff ff       	jmpq   4019a0 <_init+0x20>

0000000000401d30 <listen@plt>:
  401d30:	ff 25 a2 54 20 00    	jmpq   *0x2054a2(%rip)        # 6071d8 <_GLOBAL_OFFSET_TABLE_+0x1d8>
  401d36:	68 38 00 00 00       	pushq  $0x38
  401d3b:	e9 60 fc ff ff       	jmpq   4019a0 <_init+0x20>

0000000000401d40 <sigsuspend@plt>:
  401d40:	ff 25 9a 54 20 00    	jmpq   *0x20549a(%rip)        # 6071e0 <_GLOBAL_OFFSET_TABLE_+0x1e0>
  401d46:	68 39 00 00 00       	pushq  $0x39
  401d4b:	e9 50 fc ff ff       	jmpq   4019a0 <_init+0x20>

0000000000401d50 <sem_post@plt>:
  401d50:	ff 25 92 54 20 00    	jmpq   *0x205492(%rip)        # 6071e8 <_GLOBAL_OFFSET_TABLE_+0x1e8>
  401d56:	68 3a 00 00 00       	pushq  $0x3a
  401d5b:	e9 40 fc ff ff       	jmpq   4019a0 <_init+0x20>

0000000000401d60 <realloc@plt>:
  401d60:	ff 25 8a 54 20 00    	jmpq   *0x20548a(%rip)        # 6071f0 <_GLOBAL_OFFSET_TABLE_+0x1f0>
  401d66:	68 3b 00 00 00       	pushq  $0x3b
  401d6b:	e9 30 fc ff ff       	jmpq   4019a0 <_init+0x20>

0000000000401d70 <fdopen@plt>:
  401d70:	ff 25 82 54 20 00    	jmpq   *0x205482(%rip)        # 6071f8 <_GLOBAL_OFFSET_TABLE_+0x1f8>
  401d76:	68 3c 00 00 00       	pushq  $0x3c
  401d7b:	e9 20 fc ff ff       	jmpq   4019a0 <_init+0x20>

0000000000401d80 <munmap@plt>:
  401d80:	ff 25 7a 54 20 00    	jmpq   *0x20547a(%rip)        # 607200 <_GLOBAL_OFFSET_TABLE_+0x200>
  401d86:	68 3d 00 00 00       	pushq  $0x3d
  401d8b:	e9 10 fc ff ff       	jmpq   4019a0 <_init+0x20>

0000000000401d90 <bcopy@plt>:
  401d90:	ff 25 72 54 20 00    	jmpq   *0x205472(%rip)        # 607208 <_GLOBAL_OFFSET_TABLE_+0x208>
  401d96:	68 3e 00 00 00       	pushq  $0x3e
  401d9b:	e9 00 fc ff ff       	jmpq   4019a0 <_init+0x20>

0000000000401da0 <bind@plt>:
  401da0:	ff 25 6a 54 20 00    	jmpq   *0x20546a(%rip)        # 607210 <_GLOBAL_OFFSET_TABLE_+0x210>
  401da6:	68 3f 00 00 00       	pushq  $0x3f
  401dab:	e9 f0 fb ff ff       	jmpq   4019a0 <_init+0x20>

0000000000401db0 <pthread_self@plt>:
  401db0:	ff 25 62 54 20 00    	jmpq   *0x205462(%rip)        # 607218 <_GLOBAL_OFFSET_TABLE_+0x218>
  401db6:	68 40 00 00 00       	pushq  $0x40
  401dbb:	e9 e0 fb ff ff       	jmpq   4019a0 <_init+0x20>

0000000000401dc0 <waitpid@plt>:
  401dc0:	ff 25 5a 54 20 00    	jmpq   *0x20545a(%rip)        # 607220 <_GLOBAL_OFFSET_TABLE_+0x220>
  401dc6:	68 41 00 00 00       	pushq  $0x41
  401dcb:	e9 d0 fb ff ff       	jmpq   4019a0 <_init+0x20>

0000000000401dd0 <sem_init@plt>:
  401dd0:	ff 25 52 54 20 00    	jmpq   *0x205452(%rip)        # 607228 <_GLOBAL_OFFSET_TABLE_+0x228>
  401dd6:	68 42 00 00 00       	pushq  $0x42
  401ddb:	e9 c0 fb ff ff       	jmpq   4019a0 <_init+0x20>

0000000000401de0 <getpgrp@plt>:
  401de0:	ff 25 4a 54 20 00    	jmpq   *0x20544a(%rip)        # 607230 <_GLOBAL_OFFSET_TABLE_+0x230>
  401de6:	68 43 00 00 00       	pushq  $0x43
  401deb:	e9 b0 fb ff ff       	jmpq   4019a0 <_init+0x20>

0000000000401df0 <open@plt>:
  401df0:	ff 25 42 54 20 00    	jmpq   *0x205442(%rip)        # 607238 <_GLOBAL_OFFSET_TABLE_+0x238>
  401df6:	68 44 00 00 00       	pushq  $0x44
  401dfb:	e9 a0 fb ff ff       	jmpq   4019a0 <_init+0x20>

0000000000401e00 <fopen@plt>:
  401e00:	ff 25 3a 54 20 00    	jmpq   *0x20543a(%rip)        # 607240 <_GLOBAL_OFFSET_TABLE_+0x240>
  401e06:	68 45 00 00 00       	pushq  $0x45
  401e0b:	e9 90 fb ff ff       	jmpq   4019a0 <_init+0x20>

0000000000401e10 <sigdelset@plt>:
  401e10:	ff 25 32 54 20 00    	jmpq   *0x205432(%rip)        # 607248 <_GLOBAL_OFFSET_TABLE_+0x248>
  401e16:	68 46 00 00 00       	pushq  $0x46
  401e1b:	e9 80 fb ff ff       	jmpq   4019a0 <_init+0x20>

0000000000401e20 <bzero@plt>:
  401e20:	ff 25 2a 54 20 00    	jmpq   *0x20542a(%rip)        # 607250 <_GLOBAL_OFFSET_TABLE_+0x250>
  401e26:	68 47 00 00 00       	pushq  $0x47
  401e2b:	e9 70 fb ff ff       	jmpq   4019a0 <_init+0x20>

0000000000401e30 <pthread_join@plt>:
  401e30:	ff 25 22 54 20 00    	jmpq   *0x205422(%rip)        # 607258 <_GLOBAL_OFFSET_TABLE_+0x258>
  401e36:	68 48 00 00 00       	pushq  $0x48
  401e3b:	e9 60 fb ff ff       	jmpq   4019a0 <_init+0x20>

0000000000401e40 <accept@plt>:
  401e40:	ff 25 1a 54 20 00    	jmpq   *0x20541a(%rip)        # 607260 <_GLOBAL_OFFSET_TABLE_+0x260>
  401e46:	68 49 00 00 00       	pushq  $0x49
  401e4b:	e9 50 fb ff ff       	jmpq   4019a0 <_init+0x20>

0000000000401e50 <atoi@plt>:
  401e50:	ff 25 12 54 20 00    	jmpq   *0x205412(%rip)        # 607268 <_GLOBAL_OFFSET_TABLE_+0x268>
  401e56:	68 4a 00 00 00       	pushq  $0x4a
  401e5b:	e9 40 fb ff ff       	jmpq   4019a0 <_init+0x20>

0000000000401e60 <setpgid@plt>:
  401e60:	ff 25 0a 54 20 00    	jmpq   *0x20540a(%rip)        # 607270 <_GLOBAL_OFFSET_TABLE_+0x270>
  401e66:	68 4b 00 00 00       	pushq  $0x4b
  401e6b:	e9 30 fb ff ff       	jmpq   4019a0 <_init+0x20>

0000000000401e70 <gethostbyaddr@plt>:
  401e70:	ff 25 02 54 20 00    	jmpq   *0x205402(%rip)        # 607278 <_GLOBAL_OFFSET_TABLE_+0x278>
  401e76:	68 4c 00 00 00       	pushq  $0x4c
  401e7b:	e9 20 fb ff ff       	jmpq   4019a0 <_init+0x20>

0000000000401e80 <sprintf@plt>:
  401e80:	ff 25 fa 53 20 00    	jmpq   *0x2053fa(%rip)        # 607280 <_GLOBAL_OFFSET_TABLE_+0x280>
  401e86:	68 4d 00 00 00       	pushq  $0x4d
  401e8b:	e9 10 fb ff ff       	jmpq   4019a0 <_init+0x20>

0000000000401e90 <sigismember@plt>:
  401e90:	ff 25 f2 53 20 00    	jmpq   *0x2053f2(%rip)        # 607288 <_GLOBAL_OFFSET_TABLE_+0x288>
  401e96:	68 4e 00 00 00       	pushq  $0x4e
  401e9b:	e9 00 fb ff ff       	jmpq   4019a0 <_init+0x20>

0000000000401ea0 <exit@plt>:
  401ea0:	ff 25 ea 53 20 00    	jmpq   *0x2053ea(%rip)        # 607290 <_GLOBAL_OFFSET_TABLE_+0x290>
  401ea6:	68 4f 00 00 00       	pushq  $0x4f
  401eab:	e9 f0 fa ff ff       	jmpq   4019a0 <_init+0x20>

0000000000401eb0 <connect@plt>:
  401eb0:	ff 25 e2 53 20 00    	jmpq   *0x2053e2(%rip)        # 607298 <_GLOBAL_OFFSET_TABLE_+0x298>
  401eb6:	68 50 00 00 00       	pushq  $0x50
  401ebb:	e9 e0 fa ff ff       	jmpq   4019a0 <_init+0x20>

0000000000401ec0 <fwrite@plt>:
  401ec0:	ff 25 da 53 20 00    	jmpq   *0x2053da(%rip)        # 6072a0 <_GLOBAL_OFFSET_TABLE_+0x2a0>
  401ec6:	68 51 00 00 00       	pushq  $0x51
  401ecb:	e9 d0 fa ff ff       	jmpq   4019a0 <_init+0x20>

0000000000401ed0 <getaddrinfo@plt>:
  401ed0:	ff 25 d2 53 20 00    	jmpq   *0x2053d2(%rip)        # 6072a8 <_GLOBAL_OFFSET_TABLE_+0x2a8>
  401ed6:	68 52 00 00 00       	pushq  $0x52
  401edb:	e9 c0 fa ff ff       	jmpq   4019a0 <_init+0x20>

0000000000401ee0 <strdup@plt>:
  401ee0:	ff 25 ca 53 20 00    	jmpq   *0x2053ca(%rip)        # 6072b0 <_GLOBAL_OFFSET_TABLE_+0x2b0>
  401ee6:	68 53 00 00 00       	pushq  $0x53
  401eeb:	e9 b0 fa ff ff       	jmpq   4019a0 <_init+0x20>

0000000000401ef0 <strerror@plt>:
  401ef0:	ff 25 c2 53 20 00    	jmpq   *0x2053c2(%rip)        # 6072b8 <_GLOBAL_OFFSET_TABLE_+0x2b8>
  401ef6:	68 54 00 00 00       	pushq  $0x54
  401efb:	e9 a0 fa ff ff       	jmpq   4019a0 <_init+0x20>

0000000000401f00 <sleep@plt>:
  401f00:	ff 25 ba 53 20 00    	jmpq   *0x2053ba(%rip)        # 6072c0 <_GLOBAL_OFFSET_TABLE_+0x2c0>
  401f06:	68 55 00 00 00       	pushq  $0x55
  401f0b:	e9 90 fa ff ff       	jmpq   4019a0 <_init+0x20>

0000000000401f10 <wait@plt>:
  401f10:	ff 25 b2 53 20 00    	jmpq   *0x2053b2(%rip)        # 6072c8 <_GLOBAL_OFFSET_TABLE_+0x2c8>
  401f16:	68 56 00 00 00       	pushq  $0x56
  401f1b:	e9 80 fa ff ff       	jmpq   4019a0 <_init+0x20>

0000000000401f20 <sigaddset@plt>:
  401f20:	ff 25 aa 53 20 00    	jmpq   *0x2053aa(%rip)        # 6072d0 <_GLOBAL_OFFSET_TABLE_+0x2d0>
  401f26:	68 57 00 00 00       	pushq  $0x57
  401f2b:	e9 70 fa ff ff       	jmpq   4019a0 <_init+0x20>

0000000000401f30 <fork@plt>:
  401f30:	ff 25 a2 53 20 00    	jmpq   *0x2053a2(%rip)        # 6072d8 <_GLOBAL_OFFSET_TABLE_+0x2d8>
  401f36:	68 58 00 00 00       	pushq  $0x58
  401f3b:	e9 60 fa ff ff       	jmpq   4019a0 <_init+0x20>

0000000000401f40 <__ctype_b_loc@plt>:
  401f40:	ff 25 9a 53 20 00    	jmpq   *0x20539a(%rip)        # 6072e0 <_GLOBAL_OFFSET_TABLE_+0x2e0>
  401f46:	68 59 00 00 00       	pushq  $0x59
  401f4b:	e9 50 fa ff ff       	jmpq   4019a0 <_init+0x20>

0000000000401f50 <freeaddrinfo@plt>:
  401f50:	ff 25 92 53 20 00    	jmpq   *0x205392(%rip)        # 6072e8 <_GLOBAL_OFFSET_TABLE_+0x2e8>
  401f56:	68 5a 00 00 00       	pushq  $0x5a
  401f5b:	e9 40 fa ff ff       	jmpq   4019a0 <_init+0x20>

0000000000401f60 <socket@plt>:
  401f60:	ff 25 8a 53 20 00    	jmpq   *0x20538a(%rip)        # 6072f0 <_GLOBAL_OFFSET_TABLE_+0x2f0>
  401f66:	68 5b 00 00 00       	pushq  $0x5b
  401f6b:	e9 30 fa ff ff       	jmpq   4019a0 <_init+0x20>

Disassembly of section .plt.got:

0000000000401f70 <.plt.got>:
  401f70:	ff 25 82 50 20 00    	jmpq   *0x205082(%rip)        # 606ff8 <_DYNAMIC+0x1e0>
  401f76:	66 90                	xchg   %ax,%ax

Disassembly of section .text:

0000000000401f80 <_start>:
_start():
  401f80:	31 ed                	xor    %ebp,%ebp
  401f82:	49 89 d1             	mov    %rdx,%r9
  401f85:	5e                   	pop    %rsi
  401f86:	48 89 e2             	mov    %rsp,%rdx
  401f89:	48 83 e4 f0          	and    $0xfffffffffffffff0,%rsp
  401f8d:	50                   	push   %rax
  401f8e:	54                   	push   %rsp
  401f8f:	49 c7 c0 c0 4e 40 00 	mov    $0x404ec0,%r8
  401f96:	48 c7 c1 50 4e 40 00 	mov    $0x404e50,%rcx
  401f9d:	48 c7 c7 76 20 40 00 	mov    $0x402076,%rdi
  401fa4:	e8 47 fc ff ff       	callq  401bf0 <__libc_start_main@plt>
  401fa9:	f4                   	hlt    
  401faa:	66 0f 1f 44 00 00    	nopw   0x0(%rax,%rax,1)

0000000000401fb0 <deregister_tm_clones>:
deregister_tm_clones():
  401fb0:	b8 4f 73 60 00       	mov    $0x60734f,%eax
  401fb5:	55                   	push   %rbp
  401fb6:	48 2d 48 73 60 00    	sub    $0x607348,%rax
  401fbc:	48 83 f8 0e          	cmp    $0xe,%rax
  401fc0:	48 89 e5             	mov    %rsp,%rbp
  401fc3:	76 1b                	jbe    401fe0 <deregister_tm_clones+0x30>
  401fc5:	b8 00 00 00 00       	mov    $0x0,%eax
  401fca:	48 85 c0             	test   %rax,%rax
  401fcd:	74 11                	je     401fe0 <deregister_tm_clones+0x30>
  401fcf:	5d                   	pop    %rbp
  401fd0:	bf 48 73 60 00       	mov    $0x607348,%edi
  401fd5:	ff e0                	jmpq   *%rax
  401fd7:	66 0f 1f 84 00 00 00 	nopw   0x0(%rax,%rax,1)
  401fde:	00 00 
  401fe0:	5d                   	pop    %rbp
  401fe1:	c3                   	retq   
  401fe2:	0f 1f 40 00          	nopl   0x0(%rax)
  401fe6:	66 2e 0f 1f 84 00 00 	nopw   %cs:0x0(%rax,%rax,1)
  401fed:	00 00 00 

0000000000401ff0 <register_tm_clones>:
register_tm_clones():
  401ff0:	be 48 73 60 00       	mov    $0x607348,%esi
  401ff5:	55                   	push   %rbp
  401ff6:	48 81 ee 48 73 60 00 	sub    $0x607348,%rsi
  401ffd:	48 c1 fe 03          	sar    $0x3,%rsi
  402001:	48 89 e5             	mov    %rsp,%rbp
  402004:	48 89 f0             	mov    %rsi,%rax
  402007:	48 c1 e8 3f          	shr    $0x3f,%rax
  40200b:	48 01 c6             	add    %rax,%rsi
  40200e:	48 d1 fe             	sar    %rsi
  402011:	74 15                	je     402028 <register_tm_clones+0x38>
  402013:	b8 00 00 00 00       	mov    $0x0,%eax
  402018:	48 85 c0             	test   %rax,%rax
  40201b:	74 0b                	je     402028 <register_tm_clones+0x38>
  40201d:	5d                   	pop    %rbp
  40201e:	bf 48 73 60 00       	mov    $0x607348,%edi
  402023:	ff e0                	jmpq   *%rax
  402025:	0f 1f 00             	nopl   (%rax)
  402028:	5d                   	pop    %rbp
  402029:	c3                   	retq   
  40202a:	66 0f 1f 44 00 00    	nopw   0x0(%rax,%rax,1)

0000000000402030 <__do_global_dtors_aux>:
__do_global_dtors_aux():
  402030:	80 3d 31 53 20 00 00 	cmpb   $0x0,0x205331(%rip)        # 607368 <completed.7594>
  402037:	75 11                	jne    40204a <__do_global_dtors_aux+0x1a>
  402039:	55                   	push   %rbp
  40203a:	48 89 e5             	mov    %rsp,%rbp
  40203d:	e8 6e ff ff ff       	callq  401fb0 <deregister_tm_clones>
  402042:	5d                   	pop    %rbp
  402043:	c6 05 1e 53 20 00 01 	movb   $0x1,0x20531e(%rip)        # 607368 <completed.7594>
  40204a:	f3 c3                	repz retq 
  40204c:	0f 1f 40 00          	nopl   0x0(%rax)

0000000000402050 <frame_dummy>:
frame_dummy():
  402050:	bf 10 6e 60 00       	mov    $0x606e10,%edi
  402055:	48 83 3f 00          	cmpq   $0x0,(%rdi)
  402059:	75 05                	jne    402060 <frame_dummy+0x10>
  40205b:	eb 93                	jmp    401ff0 <register_tm_clones>
  40205d:	0f 1f 00             	nopl   (%rax)
  402060:	b8 00 00 00 00       	mov    $0x0,%eax
  402065:	48 85 c0             	test   %rax,%rax
  402068:	74 f1                	je     40205b <frame_dummy+0xb>
  40206a:	55                   	push   %rbp
  40206b:	48 89 e5             	mov    %rsp,%rbp
  40206e:	ff d0                	callq  *%rax
  402070:	5d                   	pop    %rbp
  402071:	e9 7a ff ff ff       	jmpq   401ff0 <register_tm_clones>

0000000000402076 <main>:
main():
/home/user102/proxylab-handout/proxy.c:55
  402076:	55                   	push   %rbp
  402077:	48 89 e5             	mov    %rsp,%rbp
  40207a:	48 81 ec 50 40 00 00 	sub    $0x4050,%rsp
  402081:	89 bd bc bf ff ff    	mov    %edi,-0x4044(%rbp)
  402087:	48 89 b5 b0 bf ff ff 	mov    %rsi,-0x4050(%rbp)
  40208e:	64 48 8b 04 25 28 00 	mov    %fs:0x28,%rax
  402095:	00 00 
  402097:	48 89 45 f8          	mov    %rax,-0x8(%rbp)
  40209b:	31 c0                	xor    %eax,%eax
/home/user102/proxylab-handout/proxy.c:58
  40209d:	83 bd bc bf ff ff 02 	cmpl   $0x2,-0x4044(%rbp)
  4020a4:	74 2d                	je     4020d3 <main+0x5d>
/home/user102/proxylab-handout/proxy.c:59
  4020a6:	48 8b 85 b0 bf ff ff 	mov    -0x4050(%rbp),%rax
  4020ad:	48 8b 10             	mov    (%rax),%rdx
  4020b0:	48 8b 05 a9 52 20 00 	mov    0x2052a9(%rip),%rax        # 607360 <stderr@@GLIBC_2.2.5>
  4020b7:	be 92 4f 40 00       	mov    $0x404f92,%esi
  4020bc:	48 89 c7             	mov    %rax,%rdi
  4020bf:	b8 00 00 00 00       	mov    $0x0,%eax
  4020c4:	e8 97 fb ff ff       	callq  401c60 <fprintf@plt>
/home/user102/proxylab-handout/proxy.c:60
  4020c9:	bf 01 00 00 00       	mov    $0x1,%edi
  4020ce:	e8 cd fd ff ff       	callq  401ea0 <exit@plt>
/home/user102/proxylab-handout/proxy.c:63
  4020d3:	48 8b 85 b0 bf ff ff 	mov    -0x4050(%rbp),%rax
  4020da:	48 83 c0 08          	add    $0x8,%rax
  4020de:	48 8b 00             	mov    (%rax),%rax
  4020e1:	48 89 c7             	mov    %rax,%rdi
  4020e4:	e8 67 fd ff ff       	callq  401e50 <atoi@plt>
  4020e9:	89 85 c4 bf ff ff    	mov    %eax,-0x403c(%rbp)
/home/user102/proxylab-handout/proxy.c:64
  4020ef:	8b 85 c4 bf ff ff    	mov    -0x403c(%rbp),%eax
  4020f5:	89 c6                	mov    %eax,%esi
  4020f7:	bf a4 4f 40 00       	mov    $0x404fa4,%edi
  4020fc:	b8 00 00 00 00       	mov    $0x0,%eax
  402101:	e8 3a fa ff ff       	callq  401b40 <printf@plt>
/home/user102/proxylab-handout/proxy.c:67
  402106:	48 8b 85 b0 bf ff ff 	mov    -0x4050(%rbp),%rax
  40210d:	48 83 c0 08          	add    $0x8,%rax
  402111:	48 8b 00             	mov    (%rax),%rax
  402114:	48 89 c7             	mov    %rax,%rdi
  402117:	e8 f5 2c 00 00       	callq  404e11 <Open_listenfd>
  40211c:	89 85 c8 bf ff ff    	mov    %eax,-0x4038(%rbp)
/home/user102/proxylab-handout/proxy.c:70 (discriminator 1)
  402122:	c7 85 c0 bf ff ff 10 	movl   $0x10,-0x4040(%rbp)
  402129:	00 00 00 
/home/user102/proxylab-handout/proxy.c:71 (discriminator 1)
  40212c:	48 8d 95 c0 bf ff ff 	lea    -0x4040(%rbp),%rdx
  402133:	48 8d 8d e0 bf ff ff 	lea    -0x4020(%rbp),%rcx
  40213a:	8b 85 c8 bf ff ff    	mov    -0x4038(%rbp),%eax
  402140:	48 89 ce             	mov    %rcx,%rsi
  402143:	89 c7                	mov    %eax,%edi
  402145:	e8 6a 20 00 00       	callq  4041b4 <Accept>
  40214a:	89 85 cc bf ff ff    	mov    %eax,-0x4034(%rbp)
/home/user102/proxylab-handout/proxy.c:72 (discriminator 1)
  402150:	8b 85 c0 bf ff ff    	mov    -0x4040(%rbp),%eax
  402156:	89 c6                	mov    %eax,%esi
  402158:	48 8d 8d f0 df ff ff 	lea    -0x2010(%rbp),%rcx
  40215f:	48 8d 95 f0 bf ff ff 	lea    -0x4010(%rbp),%rdx
  402166:	48 8d 85 e0 bf ff ff 	lea    -0x4020(%rbp),%rax
  40216d:	48 83 ec 08          	sub    $0x8,%rsp
  402171:	6a 00                	pushq  $0x0
  402173:	41 b9 00 20 00 00    	mov    $0x2000,%r9d
  402179:	49 89 c8             	mov    %rcx,%r8
  40217c:	b9 00 20 00 00       	mov    $0x2000,%ecx
  402181:	48 89 c7             	mov    %rax,%rdi
  402184:	e8 f2 20 00 00       	callq  40427b <Getnameinfo>
  402189:	48 83 c4 10          	add    $0x10,%rsp
/home/user102/proxylab-handout/proxy.c:73 (discriminator 1)
  40218d:	48 8d 95 f0 df ff ff 	lea    -0x2010(%rbp),%rdx
  402194:	48 8d 85 f0 bf ff ff 	lea    -0x4010(%rbp),%rax
  40219b:	48 89 c6             	mov    %rax,%rsi
  40219e:	bf b8 4f 40 00       	mov    $0x404fb8,%edi
  4021a3:	b8 00 00 00 00       	mov    $0x0,%eax
  4021a8:	e8 93 f9 ff ff       	callq  401b40 <printf@plt>
/home/user102/proxylab-handout/proxy.c:75 (discriminator 1)
  4021ad:	bf 04 00 00 00       	mov    $0x4,%edi
  4021b2:	e8 59 fb ff ff       	callq  401d10 <malloc@plt>
  4021b7:	48 89 85 d8 bf ff ff 	mov    %rax,-0x4028(%rbp)
/home/user102/proxylab-handout/proxy.c:76 (discriminator 1)
  4021be:	48 8b 85 d8 bf ff ff 	mov    -0x4028(%rbp),%rax
  4021c5:	8b 95 cc bf ff ff    	mov    -0x4034(%rbp),%edx
  4021cb:	89 10                	mov    %edx,(%rax)
/home/user102/proxylab-handout/proxy.c:77 (discriminator 1)
  4021cd:	48 8b 95 d8 bf ff ff 	mov    -0x4028(%rbp),%rdx
  4021d4:	48 8d 85 d0 bf ff ff 	lea    -0x4030(%rbp),%rax
  4021db:	48 89 d1             	mov    %rdx,%rcx
  4021de:	ba f5 21 40 00       	mov    $0x4021f5,%edx
  4021e3:	be 00 00 00 00       	mov    $0x0,%esi
  4021e8:	48 89 c7             	mov    %rax,%rdi
  4021eb:	e8 1b 22 00 00       	callq  40440b <Pthread_create>
/home/user102/proxylab-handout/proxy.c:79 (discriminator 1)
  4021f0:	e9 2d ff ff ff       	jmpq   402122 <main+0xac>

00000000004021f5 <proxy_thread>:
proxy_thread():
/home/user102/proxylab-handout/proxy.c:83
  4021f5:	55                   	push   %rbp
  4021f6:	48 89 e5             	mov    %rsp,%rbp
  4021f9:	48 83 ec 20          	sub    $0x20,%rsp
  4021fd:	48 89 7d e8          	mov    %rdi,-0x18(%rbp)
/home/user102/proxylab-handout/proxy.c:84
  402201:	48 8b 45 e8          	mov    -0x18(%rbp),%rax
  402205:	8b 00                	mov    (%rax),%eax
  402207:	89 45 fc             	mov    %eax,-0x4(%rbp)
/home/user102/proxylab-handout/proxy.c:85
  40220a:	e8 a1 fb ff ff       	callq  401db0 <pthread_self@plt>
  40220f:	48 89 c7             	mov    %rax,%rdi
  402212:	e8 b0 22 00 00       	callq  4044c7 <Pthread_detach>
/home/user102/proxylab-handout/proxy.c:86
  402217:	48 8b 45 e8          	mov    -0x18(%rbp),%rax
  40221b:	48 89 c7             	mov    %rax,%rdi
  40221e:	e8 ad f7 ff ff       	callq  4019d0 <free@plt>
/home/user102/proxylab-handout/proxy.c:87
  402223:	8b 45 fc             	mov    -0x4(%rbp),%eax
  402226:	89 c7                	mov    %eax,%edi
  402228:	e8 1b 00 00 00       	callq  402248 <doProxy>
/home/user102/proxylab-handout/proxy.c:88
  40222d:	bf db 4f 40 00       	mov    $0x404fdb,%edi
  402232:	e8 19 f8 ff ff       	callq  401a50 <puts@plt>
/home/user102/proxylab-handout/proxy.c:89
  402237:	8b 45 fc             	mov    -0x4(%rbp),%eax
  40223a:	89 c7                	mov    %eax,%edi
  40223c:	e8 9a 19 00 00       	callq  403bdb <Close>
/home/user102/proxylab-handout/proxy.c:90
  402241:	b8 00 00 00 00       	mov    $0x0,%eax
/home/user102/proxylab-handout/proxy.c:91
  402246:	c9                   	leaveq 
  402247:	c3                   	retq   

0000000000402248 <doProxy>:
doProxy():
/home/user102/proxylab-handout/proxy.c:93
  402248:	55                   	push   %rbp
  402249:	48 89 e5             	mov    %rsp,%rbp
  40224c:	48 83 ec 70          	sub    $0x70,%rsp
  402250:	89 7d 9c             	mov    %edi,-0x64(%rbp)
  402253:	64 48 8b 04 25 28 00 	mov    %fs:0x28,%rax
  40225a:	00 00 
  40225c:	48 89 45 f8          	mov    %rax,-0x8(%rbp)
  402260:	31 c0                	xor    %eax,%eax
/home/user102/proxylab-handout/proxy.c:94
  402262:	48 8d 45 b0          	lea    -0x50(%rbp),%rax
  402266:	8b 55 9c             	mov    -0x64(%rbp),%edx
  402269:	89 d6                	mov    %edx,%esi
  40226b:	48 89 c7             	mov    %rax,%rdi
  40226e:	e8 f0 00 00 00       	callq  402363 <parseRequest>
/home/user102/proxylab-handout/proxy.c:95
  402273:	bf e8 4f 40 00       	mov    $0x404fe8,%edi
  402278:	e8 d3 f7 ff ff       	callq  401a50 <puts@plt>
/home/user102/proxylab-handout/proxy.c:96
  40227d:	48 8b 45 c0          	mov    -0x40(%rbp),%rax
  402281:	ba 03 00 00 00       	mov    $0x3,%edx
  402286:	be fb 4f 40 00       	mov    $0x404ffb,%esi
  40228b:	48 89 c7             	mov    %rax,%rdi
  40228e:	e8 9d f7 ff ff       	callq  401a30 <strncmp@plt>
  402293:	85 c0                	test   %eax,%eax
  402295:	74 43                	je     4022da <doProxy+0x92>
/home/user102/proxylab-handout/proxy.c:96 (discriminator 1)
  402297:	48 8b 45 c0          	mov    -0x40(%rbp),%rax
  40229b:	ba 04 00 00 00       	mov    $0x4,%edx
  4022a0:	be ff 4f 40 00       	mov    $0x404fff,%esi
  4022a5:	48 89 c7             	mov    %rax,%rdi
  4022a8:	e8 83 f7 ff ff       	callq  401a30 <strncmp@plt>
  4022ad:	85 c0                	test   %eax,%eax
  4022af:	74 29                	je     4022da <doProxy+0x92>
/home/user102/proxylab-handout/proxy.c:97
  4022b1:	48 8b 45 c0          	mov    -0x40(%rbp),%rax
  4022b5:	48 89 c6             	mov    %rax,%rsi
  4022b8:	bf 08 50 40 00       	mov    $0x405008,%edi
  4022bd:	b8 00 00 00 00       	mov    $0x0,%eax
  4022c2:	e8 79 f8 ff ff       	callq  401b40 <printf@plt>
/home/user102/proxylab-handout/proxy.c:98
  4022c7:	48 8d 45 b0          	lea    -0x50(%rbp),%rax
  4022cb:	48 89 c7             	mov    %rax,%rdi
  4022ce:	e8 b8 0d 00 00       	callq  40308b <freeParsedRequest>
/home/user102/proxylab-handout/proxy.c:99
  4022d3:	b8 ff ff ff ff       	mov    $0xffffffff,%eax
  4022d8:	eb 73                	jmp    40234d <doProxy+0x105>
/home/user102/proxylab-handout/proxy.c:101
  4022da:	48 8d 45 b0          	lea    -0x50(%rbp),%rax
  4022de:	48 89 c7             	mov    %rax,%rdi
  4022e1:	e8 45 07 00 00       	callq  402a2b <execRequest>
  4022e6:	48 89 45 a8          	mov    %rax,-0x58(%rbp)
/home/user102/proxylab-handout/proxy.c:102
  4022ea:	bf 3e 50 40 00       	mov    $0x40503e,%edi
  4022ef:	e8 5c f7 ff ff       	callq  401a50 <puts@plt>
/home/user102/proxylab-handout/proxy.c:103
  4022f4:	48 8b 55 a8          	mov    -0x58(%rbp),%rdx
  4022f8:	8b 45 9c             	mov    -0x64(%rbp),%eax
  4022fb:	48 89 d6             	mov    %rdx,%rsi
  4022fe:	89 c7                	mov    %eax,%edi
  402300:	e8 7f 0e 00 00       	callq  403184 <replyRequest>
/home/user102/proxylab-handout/proxy.c:104
  402305:	bf 4f 50 40 00       	mov    $0x40504f,%edi
  40230a:	e8 41 f7 ff ff       	callq  401a50 <puts@plt>
/home/user102/proxylab-handout/proxy.c:105
  40230f:	48 8d 45 b0          	lea    -0x50(%rbp),%rax
  402313:	48 89 c7             	mov    %rax,%rdi
  402316:	e8 70 0d 00 00       	callq  40308b <freeParsedRequest>
/home/user102/proxylab-handout/proxy.c:106
  40231b:	48 83 7d a8 00       	cmpq   $0x0,-0x58(%rbp)
  402320:	74 1c                	je     40233e <doProxy+0xf6>
/home/user102/proxylab-handout/proxy.c:107
  402322:	48 8b 45 a8          	mov    -0x58(%rbp),%rax
  402326:	48 8b 40 08          	mov    0x8(%rax),%rax
  40232a:	48 89 c7             	mov    %rax,%rdi
  40232d:	e8 9e f6 ff ff       	callq  4019d0 <free@plt>
/home/user102/proxylab-handout/proxy.c:108
  402332:	48 8b 45 a8          	mov    -0x58(%rbp),%rax
  402336:	48 89 c7             	mov    %rax,%rdi
  402339:	e8 92 f6 ff ff       	callq  4019d0 <free@plt>
/home/user102/proxylab-handout/proxy.c:110
  40233e:	bf 61 50 40 00       	mov    $0x405061,%edi
  402343:	e8 08 f7 ff ff       	callq  401a50 <puts@plt>
/home/user102/proxylab-handout/proxy.c:111
  402348:	b8 00 00 00 00       	mov    $0x0,%eax
/home/user102/proxylab-handout/proxy.c:112 (discriminator 1)
  40234d:	48 8b 4d f8          	mov    -0x8(%rbp),%rcx
  402351:	64 48 33 0c 25 28 00 	xor    %fs:0x28,%rcx
  402358:	00 00 
  40235a:	74 05                	je     402361 <doProxy+0x119>
/home/user102/proxylab-handout/proxy.c:112
  40235c:	e8 9f f7 ff ff       	callq  401b00 <__stack_chk_fail@plt>
  402361:	c9                   	leaveq 
  402362:	c3                   	retq   

0000000000402363 <parseRequest>:
parseRequest():
/home/user102/proxylab-handout/proxy.c:114
  402363:	55                   	push   %rbp
  402364:	48 89 e5             	mov    %rsp,%rbp
  402367:	48 81 ec d0 60 00 00 	sub    $0x60d0,%rsp
  40236e:	48 89 bd 38 9f ff ff 	mov    %rdi,-0x60c8(%rbp)
  402375:	89 b5 34 9f ff ff    	mov    %esi,-0x60cc(%rbp)
  40237b:	64 48 8b 04 25 28 00 	mov    %fs:0x28,%rax
  402382:	00 00 
  402384:	48 89 45 f8          	mov    %rax,-0x8(%rbp)
  402388:	31 c0                	xor    %eax,%eax
/home/user102/proxylab-handout/proxy.c:119
  40238a:	8b 95 34 9f ff ff    	mov    -0x60cc(%rbp),%edx
  402390:	48 8d 85 e0 9f ff ff 	lea    -0x6020(%rbp),%rax
  402397:	89 d6                	mov    %edx,%esi
  402399:	48 89 c7             	mov    %rax,%rdi
  40239c:	e8 2d 26 00 00       	callq  4049ce <Rio_readinitb>
/home/user102/proxylab-handout/proxy.c:121
  4023a1:	48 c7 85 d8 9f ff ff 	movq   $0x0,-0x6028(%rbp)
  4023a8:	00 00 00 00 
/home/user102/proxylab-handout/proxy.c:122
  4023ac:	48 c7 85 c8 9f ff ff 	movq   $0x0,-0x6038(%rbp)
  4023b3:	00 00 00 00 
/home/user102/proxylab-handout/proxy.c:123
  4023b7:	48 c7 85 a0 9f ff ff 	movq   $0x0,-0x6060(%rbp)
  4023be:	00 00 00 00 
/home/user102/proxylab-handout/proxy.c:124
  4023c2:	48 c7 85 b0 9f ff ff 	movq   $0x0,-0x6050(%rbp)
  4023c9:	00 00 00 00 
/home/user102/proxylab-handout/proxy.c:125
  4023cd:	48 c7 85 a8 9f ff ff 	movq   $0x0,-0x6058(%rbp)
  4023d4:	00 00 00 00 
/home/user102/proxylab-handout/proxy.c:126
  4023d8:	48 c7 85 b8 9f ff ff 	movq   $0x0,-0x6048(%rbp)
  4023df:	00 00 00 00 
/home/user102/proxylab-handout/proxy.c:127
  4023e3:	48 c7 85 d0 9f ff ff 	movq   $0x0,-0x6030(%rbp)
  4023ea:	00 00 00 00 
/home/user102/proxylab-handout/proxy.c:128
  4023ee:	48 c7 85 50 9f ff ff 	movq   $0x0,-0x60b0(%rbp)
  4023f5:	00 00 00 00 
/home/user102/proxylab-handout/proxy.c:129
  4023f9:	48 c7 85 58 9f ff ff 	movq   $0x0,-0x60a8(%rbp)
  402400:	00 00 00 00 
/home/user102/proxylab-handout/proxy.c:131
  402404:	e9 31 04 00 00       	jmpq   40283a <parseRequest+0x4d7>
/home/user102/proxylab-handout/proxy.c:133
  402409:	48 8d 85 f0 bf ff ff 	lea    -0x4010(%rbp),%rax
  402410:	48 89 c6             	mov    %rax,%rsi
  402413:	bf 79 50 40 00       	mov    $0x405079,%edi
  402418:	b8 00 00 00 00       	mov    $0x0,%eax
  40241d:	e8 1e f7 ff ff       	callq  401b40 <printf@plt>
/home/user102/proxylab-handout/proxy.c:134
  402422:	48 8d 8d f0 bf ff ff 	lea    -0x4010(%rbp),%rcx
  402429:	48 8d 85 f0 df ff ff 	lea    -0x2010(%rbp),%rax
  402430:	ba 00 20 00 00       	mov    $0x2000,%edx
  402435:	48 89 ce             	mov    %rcx,%rsi
  402438:	48 89 c7             	mov    %rax,%rdi
  40243b:	e8 e0 f5 ff ff       	callq  401a20 <strncpy@plt>
/home/user102/proxylab-handout/proxy.c:136
  402440:	48 8d 95 48 9f ff ff 	lea    -0x60b8(%rbp),%rdx
  402447:	48 8d 85 f0 bf ff ff 	lea    -0x4010(%rbp),%rax
  40244e:	be 82 50 40 00       	mov    $0x405082,%esi
  402453:	48 89 c7             	mov    %rax,%rdi
  402456:	e8 75 f7 ff ff       	callq  401bd0 <strtok_r@plt>
  40245b:	48 89 85 68 9f ff ff 	mov    %rax,-0x6098(%rbp)
/home/user102/proxylab-handout/proxy.c:137
  402462:	48 83 bd 68 9f ff ff 	cmpq   $0x0,-0x6098(%rbp)
  402469:	00 
  40246a:	0f 84 c9 03 00 00    	je     402839 <parseRequest+0x4d6>
/home/user102/proxylab-handout/proxy.c:139
  402470:	48 8b 85 68 9f ff ff 	mov    -0x6098(%rbp),%rax
  402477:	ba 02 00 00 00       	mov    $0x2,%edx
  40247c:	be 84 50 40 00       	mov    $0x405084,%esi
  402481:	48 89 c7             	mov    %rax,%rdi
  402484:	e8 a7 f5 ff ff       	callq  401a30 <strncmp@plt>
  402489:	85 c0                	test   %eax,%eax
  40248b:	75 1e                	jne    4024ab <parseRequest+0x148>
/home/user102/proxylab-handout/proxy.c:140
  40248d:	48 8d 85 f0 df ff ff 	lea    -0x2010(%rbp),%rax
  402494:	48 89 c6             	mov    %rax,%rsi
  402497:	bf 87 50 40 00       	mov    $0x405087,%edi
  40249c:	b8 00 00 00 00       	mov    $0x0,%eax
  4024a1:	e8 9a f6 ff ff       	callq  401b40 <printf@plt>
  4024a6:	e9 c2 03 00 00       	jmpq   40286d <parseRequest+0x50a>
/home/user102/proxylab-handout/proxy.c:143
  4024ab:	48 8b 85 68 9f ff ff 	mov    -0x6098(%rbp),%rax
  4024b2:	be fb 4f 40 00       	mov    $0x404ffb,%esi
  4024b7:	48 89 c7             	mov    %rax,%rdi
  4024ba:	e8 31 f5 ff ff       	callq  4019f0 <strcasecmp@plt>
  4024bf:	85 c0                	test   %eax,%eax
  4024c1:	74 1c                	je     4024df <parseRequest+0x17c>
/home/user102/proxylab-handout/proxy.c:143 (discriminator 1)
  4024c3:	48 8b 85 68 9f ff ff 	mov    -0x6098(%rbp),%rax
  4024ca:	be ff 4f 40 00       	mov    $0x404fff,%esi
  4024cf:	48 89 c7             	mov    %rax,%rdi
  4024d2:	e8 19 f5 ff ff       	callq  4019f0 <strcasecmp@plt>
  4024d7:	85 c0                	test   %eax,%eax
  4024d9:	0f 85 b5 00 00 00    	jne    402594 <parseRequest+0x231>
/home/user102/proxylab-handout/proxy.c:145
  4024df:	48 8d 85 48 9f ff ff 	lea    -0x60b8(%rbp),%rax
  4024e6:	48 89 c2             	mov    %rax,%rdx
  4024e9:	be 82 50 40 00       	mov    $0x405082,%esi
  4024ee:	bf 00 00 00 00       	mov    $0x0,%edi
  4024f3:	e8 d8 f6 ff ff       	callq  401bd0 <strtok_r@plt>
  4024f8:	48 89 85 88 9f ff ff 	mov    %rax,-0x6078(%rbp)
/home/user102/proxylab-handout/proxy.c:146
  4024ff:	48 8d 85 48 9f ff ff 	lea    -0x60b8(%rbp),%rax
  402506:	48 89 c2             	mov    %rax,%rdx
  402509:	be 82 50 40 00       	mov    $0x405082,%esi
  40250e:	bf 00 00 00 00       	mov    $0x0,%edi
  402513:	e8 b8 f6 ff ff       	callq  401bd0 <strtok_r@plt>
  402518:	48 89 85 90 9f ff ff 	mov    %rax,-0x6070(%rbp)
/home/user102/proxylab-handout/proxy.c:147
  40251f:	48 8b 85 68 9f ff ff 	mov    -0x6098(%rbp),%rax
  402526:	48 89 85 98 9f ff ff 	mov    %rax,-0x6068(%rbp)
/home/user102/proxylab-handout/proxy.c:148
  40252d:	48 8b 95 90 9f ff ff 	mov    -0x6070(%rbp),%rdx
  402534:	48 8b 85 88 9f ff ff 	mov    -0x6078(%rbp),%rax
  40253b:	48 89 c6             	mov    %rax,%rsi
  40253e:	bf 95 50 40 00       	mov    $0x405095,%edi
  402543:	b8 00 00 00 00       	mov    $0x0,%eax
  402548:	e8 f3 f5 ff ff       	callq  401b40 <printf@plt>
/home/user102/proxylab-handout/proxy.c:149
  40254d:	48 8b 85 88 9f ff ff 	mov    -0x6078(%rbp),%rax
  402554:	48 89 c7             	mov    %rax,%rdi
  402557:	e8 84 f9 ff ff       	callq  401ee0 <strdup@plt>
  40255c:	48 89 85 a0 9f ff ff 	mov    %rax,-0x6060(%rbp)
/home/user102/proxylab-handout/proxy.c:150
  402563:	48 8b 85 90 9f ff ff 	mov    -0x6070(%rbp),%rax
  40256a:	48 89 c7             	mov    %rax,%rdi
  40256d:	e8 6e f9 ff ff       	callq  401ee0 <strdup@plt>
  402572:	48 89 85 a8 9f ff ff 	mov    %rax,-0x6058(%rbp)
/home/user102/proxylab-handout/proxy.c:151
  402579:	48 8b 85 98 9f ff ff 	mov    -0x6068(%rbp),%rax
  402580:	48 89 c7             	mov    %rax,%rdi
  402583:	e8 58 f9 ff ff       	callq  401ee0 <strdup@plt>
  402588:	48 89 85 b0 9f ff ff 	mov    %rax,-0x6050(%rbp)
/home/user102/proxylab-handout/proxy.c:152
  40258f:	e9 a6 02 00 00       	jmpq   40283a <parseRequest+0x4d7>
/home/user102/proxylab-handout/proxy.c:154
  402594:	48 8d 95 48 9f ff ff 	lea    -0x60b8(%rbp),%rdx
  40259b:	48 8d 85 f0 df ff ff 	lea    -0x2010(%rbp),%rax
  4025a2:	be ab 50 40 00       	mov    $0x4050ab,%esi
  4025a7:	48 89 c7             	mov    %rax,%rdi
  4025aa:	e8 21 f6 ff ff       	callq  401bd0 <strtok_r@plt>
  4025af:	48 89 85 70 9f ff ff 	mov    %rax,-0x6090(%rbp)
/home/user102/proxylab-handout/proxy.c:155
  4025b6:	48 8d 85 48 9f ff ff 	lea    -0x60b8(%rbp),%rax
  4025bd:	48 89 c2             	mov    %rax,%rdx
  4025c0:	be ab 50 40 00       	mov    $0x4050ab,%esi
  4025c5:	bf 00 00 00 00       	mov    $0x0,%edi
  4025ca:	e8 01 f6 ff ff       	callq  401bd0 <strtok_r@plt>
  4025cf:	48 89 85 78 9f ff ff 	mov    %rax,-0x6088(%rbp)
/home/user102/proxylab-handout/proxy.c:156
  4025d6:	48 8b 95 78 9f ff ff 	mov    -0x6088(%rbp),%rdx
  4025dd:	48 8b 85 70 9f ff ff 	mov    -0x6090(%rbp),%rax
  4025e4:	48 89 c6             	mov    %rax,%rsi
  4025e7:	bf ad 50 40 00       	mov    $0x4050ad,%edi
  4025ec:	b8 00 00 00 00       	mov    $0x0,%eax
  4025f1:	e8 4a f5 ff ff       	callq  401b40 <printf@plt>
/home/user102/proxylab-handout/proxy.c:157
  4025f6:	bf 18 00 00 00       	mov    $0x18,%edi
  4025fb:	e8 10 f7 ff ff       	callq  401d10 <malloc@plt>
  402600:	48 89 85 80 9f ff ff 	mov    %rax,-0x6080(%rbp)
/home/user102/proxylab-handout/proxy.c:158
  402607:	48 8b 85 80 9f ff ff 	mov    -0x6080(%rbp),%rax
  40260e:	48 c7 40 10 00 00 00 	movq   $0x0,0x10(%rax)
  402615:	00 
/home/user102/proxylab-handout/proxy.c:159
  402616:	48 8b 85 70 9f ff ff 	mov    -0x6090(%rbp),%rax
  40261d:	48 89 c7             	mov    %rax,%rdi
  402620:	e8 d9 0c 00 00       	callq  4032fe <trimwhitespace>
  402625:	48 89 c7             	mov    %rax,%rdi
  402628:	e8 b3 f8 ff ff       	callq  401ee0 <strdup@plt>
  40262d:	48 89 c2             	mov    %rax,%rdx
  402630:	48 8b 85 80 9f ff ff 	mov    -0x6080(%rbp),%rax
  402637:	48 89 10             	mov    %rdx,(%rax)
/home/user102/proxylab-handout/proxy.c:160
  40263a:	48 8b 85 78 9f ff ff 	mov    -0x6088(%rbp),%rax
  402641:	48 89 c7             	mov    %rax,%rdi
  402644:	e8 b5 0c 00 00       	callq  4032fe <trimwhitespace>
  402649:	48 89 c7             	mov    %rax,%rdi
  40264c:	e8 8f f8 ff ff       	callq  401ee0 <strdup@plt>
  402651:	48 89 c2             	mov    %rax,%rdx
  402654:	48 8b 85 80 9f ff ff 	mov    -0x6080(%rbp),%rax
  40265b:	48 89 50 08          	mov    %rdx,0x8(%rax)
/home/user102/proxylab-handout/proxy.c:161
  40265f:	48 8b 15 ba 4c 20 00 	mov    0x204cba(%rip),%rdx        # 607320 <connection>
  402666:	48 8b 85 80 9f ff ff 	mov    -0x6080(%rbp),%rax
  40266d:	48 8b 00             	mov    (%rax),%rax
  402670:	48 89 d6             	mov    %rdx,%rsi
  402673:	48 89 c7             	mov    %rax,%rdi
  402676:	e8 b5 f5 ff ff       	callq  401c30 <strcmp@plt>
  40267b:	85 c0                	test   %eax,%eax
  40267d:	75 3c                	jne    4026bb <parseRequest+0x358>
/home/user102/proxylab-handout/proxy.c:162
  40267f:	48 8b 85 80 9f ff ff 	mov    -0x6080(%rbp),%rax
  402686:	48 8b 40 08          	mov    0x8(%rax),%rax
  40268a:	48 89 c7             	mov    %rax,%rdi
  40268d:	e8 3e f3 ff ff       	callq  4019d0 <free@plt>
/home/user102/proxylab-handout/proxy.c:163
  402692:	48 8b 05 77 4c 20 00 	mov    0x204c77(%rip),%rax        # 607310 <connection_close_hdr>
  402699:	48 89 c7             	mov    %rax,%rdi
  40269c:	e8 3f f8 ff ff       	callq  401ee0 <strdup@plt>
  4026a1:	48 89 c2             	mov    %rax,%rdx
  4026a4:	48 8b 85 80 9f ff ff 	mov    -0x6080(%rbp),%rax
  4026ab:	48 89 50 08          	mov    %rdx,0x8(%rax)
/home/user102/proxylab-handout/proxy.c:164
  4026af:	c6 85 c1 9f ff ff 01 	movb   $0x1,-0x603f(%rbp)
  4026b6:	e9 34 01 00 00       	jmpq   4027ef <parseRequest+0x48c>
/home/user102/proxylab-handout/proxy.c:165
  4026bb:	48 8b 15 66 4c 20 00 	mov    0x204c66(%rip),%rdx        # 607328 <proxy_connection>
  4026c2:	48 8b 85 80 9f ff ff 	mov    -0x6080(%rbp),%rax
  4026c9:	48 8b 00             	mov    (%rax),%rax
  4026cc:	48 89 d6             	mov    %rdx,%rsi
  4026cf:	48 89 c7             	mov    %rax,%rdi
  4026d2:	e8 59 f5 ff ff       	callq  401c30 <strcmp@plt>
  4026d7:	85 c0                	test   %eax,%eax
  4026d9:	75 3c                	jne    402717 <parseRequest+0x3b4>
/home/user102/proxylab-handout/proxy.c:166
  4026db:	48 8b 85 80 9f ff ff 	mov    -0x6080(%rbp),%rax
  4026e2:	48 8b 40 08          	mov    0x8(%rax),%rax
  4026e6:	48 89 c7             	mov    %rax,%rdi
  4026e9:	e8 e2 f2 ff ff       	callq  4019d0 <free@plt>
/home/user102/proxylab-handout/proxy.c:167
  4026ee:	48 8b 05 23 4c 20 00 	mov    0x204c23(%rip),%rax        # 607318 <proxy_connection_close_hdr>
  4026f5:	48 89 c7             	mov    %rax,%rdi
  4026f8:	e8 e3 f7 ff ff       	callq  401ee0 <strdup@plt>
  4026fd:	48 89 c2             	mov    %rax,%rdx
  402700:	48 8b 85 80 9f ff ff 	mov    -0x6080(%rbp),%rax
  402707:	48 89 50 08          	mov    %rdx,0x8(%rax)
/home/user102/proxylab-handout/proxy.c:168
  40270b:	c6 85 c2 9f ff ff 01 	movb   $0x1,-0x603e(%rbp)
  402712:	e9 d8 00 00 00       	jmpq   4027ef <parseRequest+0x48c>
/home/user102/proxylab-handout/proxy.c:169
  402717:	48 8b 15 12 4c 20 00 	mov    0x204c12(%rip),%rdx        # 607330 <user_agent>
  40271e:	48 8b 85 80 9f ff ff 	mov    -0x6080(%rbp),%rax
  402725:	48 8b 00             	mov    (%rax),%rax
  402728:	48 89 d6             	mov    %rdx,%rsi
  40272b:	48 89 c7             	mov    %rax,%rdi
  40272e:	e8 fd f4 ff ff       	callq  401c30 <strcmp@plt>
  402733:	85 c0                	test   %eax,%eax
  402735:	75 39                	jne    402770 <parseRequest+0x40d>
/home/user102/proxylab-handout/proxy.c:170
  402737:	48 8b 85 80 9f ff ff 	mov    -0x6080(%rbp),%rax
  40273e:	48 8b 40 08          	mov    0x8(%rax),%rax
  402742:	48 89 c7             	mov    %rax,%rdi
  402745:	e8 86 f2 ff ff       	callq  4019d0 <free@plt>
/home/user102/proxylab-handout/proxy.c:171
  40274a:	48 8b 05 b7 4b 20 00 	mov    0x204bb7(%rip),%rax        # 607308 <user_agent_hdr>
  402751:	48 89 c7             	mov    %rax,%rdi
  402754:	e8 87 f7 ff ff       	callq  401ee0 <strdup@plt>
  402759:	48 89 c2             	mov    %rax,%rdx
  40275c:	48 8b 85 80 9f ff ff 	mov    -0x6080(%rbp),%rax
  402763:	48 89 50 08          	mov    %rdx,0x8(%rax)
/home/user102/proxylab-handout/proxy.c:172
  402767:	c6 85 c0 9f ff ff 01 	movb   $0x1,-0x6040(%rbp)
  40276e:	eb 7f                	jmp    4027ef <parseRequest+0x48c>
/home/user102/proxylab-handout/proxy.c:173
  402770:	48 8b 15 c1 4b 20 00 	mov    0x204bc1(%rip),%rdx        # 607338 <host>
  402777:	48 8b 85 80 9f ff ff 	mov    -0x6080(%rbp),%rax
  40277e:	48 8b 00             	mov    (%rax),%rax
  402781:	48 89 d6             	mov    %rdx,%rsi
  402784:	48 89 c7             	mov    %rax,%rdi
  402787:	e8 a4 f4 ff ff       	callq  401c30 <strcmp@plt>
  40278c:	85 c0                	test   %eax,%eax
  40278e:	75 23                	jne    4027b3 <parseRequest+0x450>
/home/user102/proxylab-handout/proxy.c:174
  402790:	c6 85 c3 9f ff ff 01 	movb   $0x1,-0x603d(%rbp)
/home/user102/proxylab-handout/proxy.c:175
  402797:	48 8b 85 80 9f ff ff 	mov    -0x6080(%rbp),%rax
  40279e:	48 8b 40 08          	mov    0x8(%rax),%rax
  4027a2:	48 89 c7             	mov    %rax,%rdi
  4027a5:	e8 36 f7 ff ff       	callq  401ee0 <strdup@plt>
  4027aa:	48 89 85 b8 9f ff ff 	mov    %rax,-0x6048(%rbp)
  4027b1:	eb 3c                	jmp    4027ef <parseRequest+0x48c>
/home/user102/proxylab-handout/proxy.c:176
  4027b3:	48 8b 15 86 4b 20 00 	mov    0x204b86(%rip),%rdx        # 607340 <contentLengthField>
  4027ba:	48 8b 85 80 9f ff ff 	mov    -0x6080(%rbp),%rax
  4027c1:	48 8b 00             	mov    (%rax),%rax
  4027c4:	48 89 d6             	mov    %rdx,%rsi
  4027c7:	48 89 c7             	mov    %rax,%rdi
  4027ca:	e8 61 f4 ff ff       	callq  401c30 <strcmp@plt>
  4027cf:	85 c0                	test   %eax,%eax
  4027d1:	75 1c                	jne    4027ef <parseRequest+0x48c>
/home/user102/proxylab-handout/proxy.c:177
  4027d3:	48 8b 85 80 9f ff ff 	mov    -0x6080(%rbp),%rax
  4027da:	48 8b 40 08          	mov    0x8(%rax),%rax
  4027de:	48 89 c7             	mov    %rax,%rdi
  4027e1:	e8 6a f6 ff ff       	callq  401e50 <atoi@plt>
  4027e6:	48 98                	cltq   
  4027e8:	48 89 85 c8 9f ff ff 	mov    %rax,-0x6038(%rbp)
/home/user102/proxylab-handout/proxy.c:179
  4027ef:	48 83 bd 50 9f ff ff 	cmpq   $0x0,-0x60b0(%rbp)
  4027f6:	00 
  4027f7:	75 1e                	jne    402817 <parseRequest+0x4b4>
/home/user102/proxylab-handout/proxy.c:180
  4027f9:	48 8b 85 80 9f ff ff 	mov    -0x6080(%rbp),%rax
  402800:	48 89 85 50 9f ff ff 	mov    %rax,-0x60b0(%rbp)
/home/user102/proxylab-handout/proxy.c:181
  402807:	48 8b 85 50 9f ff ff 	mov    -0x60b0(%rbp),%rax
  40280e:	48 89 85 d8 9f ff ff 	mov    %rax,-0x6028(%rbp)
/home/user102/proxylab-handout/proxy.c:186
  402815:	eb 23                	jmp    40283a <parseRequest+0x4d7>
/home/user102/proxylab-handout/proxy.c:183
  402817:	48 8b 85 50 9f ff ff 	mov    -0x60b0(%rbp),%rax
  40281e:	48 8b 95 80 9f ff ff 	mov    -0x6080(%rbp),%rdx
  402825:	48 89 50 10          	mov    %rdx,0x10(%rax)
/home/user102/proxylab-handout/proxy.c:184
  402829:	48 8b 85 80 9f ff ff 	mov    -0x6080(%rbp),%rax
  402830:	48 89 85 50 9f ff ff 	mov    %rax,-0x60b0(%rbp)
/home/user102/proxylab-handout/proxy.c:186
  402837:	eb 01                	jmp    40283a <parseRequest+0x4d7>
/home/user102/proxylab-handout/proxy.c:138
  402839:	90                   	nop
/home/user102/proxylab-handout/proxy.c:131
  40283a:	48 8d 8d f0 bf ff ff 	lea    -0x4010(%rbp),%rcx
  402841:	48 8d 85 e0 9f ff ff 	lea    -0x6020(%rbp),%rax
  402848:	ba 00 20 00 00       	mov    $0x2000,%edx
  40284d:	48 89 ce             	mov    %rcx,%rsi
  402850:	48 89 c7             	mov    %rax,%rdi
  402853:	e8 df 21 00 00       	callq  404a37 <Rio_readlineb>
  402858:	48 89 85 60 9f ff ff 	mov    %rax,-0x60a0(%rbp)
  40285f:	48 83 bd 60 9f ff ff 	cmpq   $0x0,-0x60a0(%rbp)
  402866:	00 
  402867:	0f 85 9c fb ff ff    	jne    402409 <parseRequest+0xa6>
/home/user102/proxylab-handout/proxy.c:190
  40286d:	48 8b 85 c8 9f ff ff 	mov    -0x6038(%rbp),%rax
  402874:	48 85 c0             	test   %rax,%rax
  402877:	0f 8e 33 01 00 00    	jle    4029b0 <parseRequest+0x64d>
/home/user102/proxylab-handout/proxy.c:191
  40287d:	48 8b 85 c8 9f ff ff 	mov    -0x6038(%rbp),%rax
  402884:	48 89 c6             	mov    %rax,%rsi
  402887:	bf c3 50 40 00       	mov    $0x4050c3,%edi
  40288c:	b8 00 00 00 00       	mov    $0x0,%eax
  402891:	e8 aa f2 ff ff       	callq  401b40 <printf@plt>
/home/user102/proxylab-handout/proxy.c:192
  402896:	c7 85 44 9f ff ff 00 	movl   $0x0,-0x60bc(%rbp)
  40289d:	00 00 00 
/home/user102/proxylab-handout/proxy.c:193
  4028a0:	c7 85 40 9f ff ff 00 	movl   $0x0,-0x60c0(%rbp)
  4028a7:	00 00 00 
/home/user102/proxylab-handout/proxy.c:194
  4028aa:	48 c7 85 d0 9f ff ff 	movq   $0x0,-0x6030(%rbp)
  4028b1:	00 00 00 00 
/home/user102/proxylab-handout/proxy.c:195
  4028b5:	e9 97 00 00 00       	jmpq   402951 <parseRequest+0x5ee>
/home/user102/proxylab-handout/proxy.c:197
  4028ba:	8b 85 44 9f ff ff    	mov    -0x60bc(%rbp),%eax
  4028c0:	89 c6                	mov    %eax,%esi
  4028c2:	bf d7 50 40 00       	mov    $0x4050d7,%edi
  4028c7:	b8 00 00 00 00       	mov    $0x0,%eax
  4028cc:	e8 6f f2 ff ff       	callq  401b40 <printf@plt>
/home/user102/proxylab-handout/proxy.c:198
  4028d1:	8b 85 44 9f ff ff    	mov    -0x60bc(%rbp),%eax
  4028d7:	01 85 40 9f ff ff    	add    %eax,-0x60c0(%rbp)
/home/user102/proxylab-handout/proxy.c:199
  4028dd:	8b 85 40 9f ff ff    	mov    -0x60c0(%rbp),%eax
  4028e3:	48 63 d0             	movslq %eax,%rdx
  4028e6:	48 8b 85 d0 9f ff ff 	mov    -0x6030(%rbp),%rax
  4028ed:	48 89 d6             	mov    %rdx,%rsi
  4028f0:	48 89 c7             	mov    %rax,%rdi
  4028f3:	e8 68 f4 ff ff       	callq  401d60 <realloc@plt>
  4028f8:	48 89 85 d0 9f ff ff 	mov    %rax,-0x6030(%rbp)
/home/user102/proxylab-handout/proxy.c:200
  4028ff:	8b 85 44 9f ff ff    	mov    -0x60bc(%rbp),%eax
  402905:	48 63 d0             	movslq %eax,%rdx
  402908:	48 8b 85 d0 9f ff ff 	mov    -0x6030(%rbp),%rax
  40290f:	8b 8d 40 9f ff ff    	mov    -0x60c0(%rbp),%ecx
  402915:	48 63 f1             	movslq %ecx,%rsi
  402918:	8b 8d 44 9f ff ff    	mov    -0x60bc(%rbp),%ecx
  40291e:	48 63 c9             	movslq %ecx,%rcx
  402921:	48 29 ce             	sub    %rcx,%rsi
  402924:	48 89 f1             	mov    %rsi,%rcx
  402927:	48 01 c1             	add    %rax,%rcx
  40292a:	48 8d 85 f0 bf ff ff 	lea    -0x4010(%rbp),%rax
  402931:	48 89 c6             	mov    %rax,%rsi
  402934:	48 89 cf             	mov    %rcx,%rdi
  402937:	e8 54 f3 ff ff       	callq  401c90 <memcpy@plt>
/home/user102/proxylab-handout/proxy.c:201
  40293c:	8b 85 40 9f ff ff    	mov    -0x60c0(%rbp),%eax
  402942:	48 63 d0             	movslq %eax,%rdx
  402945:	48 8b 85 c8 9f ff ff 	mov    -0x6038(%rbp),%rax
  40294c:	48 39 c2             	cmp    %rax,%rdx
  40294f:	74 47                	je     402998 <parseRequest+0x635>
/home/user102/proxylab-handout/proxy.c:195
  402951:	48 8b 85 c8 9f ff ff 	mov    -0x6038(%rbp),%rax
  402958:	ba 00 20 00 00       	mov    $0x2000,%edx
  40295d:	48 3d 00 20 00 00    	cmp    $0x2000,%rax
  402963:	48 0f 4f c2          	cmovg  %rdx,%rax
  402967:	48 89 c2             	mov    %rax,%rdx
  40296a:	48 8d 8d f0 bf ff ff 	lea    -0x4010(%rbp),%rcx
  402971:	48 8d 85 e0 9f ff ff 	lea    -0x6020(%rbp),%rax
  402978:	48 89 ce             	mov    %rcx,%rsi
  40297b:	48 89 c7             	mov    %rax,%rdi
  40297e:	e8 6e 20 00 00       	callq  4049f1 <Rio_readnb>
  402983:	89 85 44 9f ff ff    	mov    %eax,-0x60bc(%rbp)
  402989:	83 bd 44 9f ff ff 00 	cmpl   $0x0,-0x60bc(%rbp)
  402990:	0f 8f 24 ff ff ff    	jg     4028ba <parseRequest+0x557>
  402996:	eb 01                	jmp    402999 <parseRequest+0x636>
/home/user102/proxylab-handout/proxy.c:202
  402998:	90                   	nop
/home/user102/proxylab-handout/proxy.c:205
  402999:	8b 85 40 9f ff ff    	mov    -0x60c0(%rbp),%eax
  40299f:	89 c6                	mov    %eax,%esi
  4029a1:	bf dd 50 40 00       	mov    $0x4050dd,%edi
  4029a6:	b8 00 00 00 00       	mov    $0x0,%eax
  4029ab:	e8 90 f1 ff ff       	callq  401b40 <printf@plt>
/home/user102/proxylab-handout/proxy.c:208
  4029b0:	48 8b 85 38 9f ff ff 	mov    -0x60c8(%rbp),%rax
  4029b7:	48 8b 95 a0 9f ff ff 	mov    -0x6060(%rbp),%rdx
  4029be:	48 89 10             	mov    %rdx,(%rax)
  4029c1:	48 8b 95 a8 9f ff ff 	mov    -0x6058(%rbp),%rdx
  4029c8:	48 89 50 08          	mov    %rdx,0x8(%rax)
  4029cc:	48 8b 95 b0 9f ff ff 	mov    -0x6050(%rbp),%rdx
  4029d3:	48 89 50 10          	mov    %rdx,0x10(%rax)
  4029d7:	48 8b 95 b8 9f ff ff 	mov    -0x6048(%rbp),%rdx
  4029de:	48 89 50 18          	mov    %rdx,0x18(%rax)
  4029e2:	48 8b 95 c0 9f ff ff 	mov    -0x6040(%rbp),%rdx
  4029e9:	48 89 50 20          	mov    %rdx,0x20(%rax)
  4029ed:	48 8b 95 c8 9f ff ff 	mov    -0x6038(%rbp),%rdx
  4029f4:	48 89 50 28          	mov    %rdx,0x28(%rax)
  4029f8:	48 8b 95 d0 9f ff ff 	mov    -0x6030(%rbp),%rdx
  4029ff:	48 89 50 30          	mov    %rdx,0x30(%rax)
  402a03:	48 8b 95 d8 9f ff ff 	mov    -0x6028(%rbp),%rdx
  402a0a:	48 89 50 38          	mov    %rdx,0x38(%rax)
/home/user102/proxylab-handout/proxy.c:209
  402a0e:	48 8b 85 38 9f ff ff 	mov    -0x60c8(%rbp),%rax
  402a15:	48 8b 4d f8          	mov    -0x8(%rbp),%rcx
  402a19:	64 48 33 0c 25 28 00 	xor    %fs:0x28,%rcx
  402a20:	00 00 
  402a22:	74 05                	je     402a29 <parseRequest+0x6c6>
  402a24:	e8 d7 f0 ff ff       	callq  401b00 <__stack_chk_fail@plt>
  402a29:	c9                   	leaveq 
  402a2a:	c3                   	retq   

0000000000402a2b <execRequest>:
execRequest():
/home/user102/proxylab-handout/proxy.c:211
  402a2b:	55                   	push   %rbp
  402a2c:	48 89 e5             	mov    %rsp,%rbp
  402a2f:	48 81 ec 80 40 00 00 	sub    $0x4080,%rsp
  402a36:	48 89 bd 88 bf ff ff 	mov    %rdi,-0x4078(%rbp)
  402a3d:	64 48 8b 04 25 28 00 	mov    %fs:0x28,%rax
  402a44:	00 00 
  402a46:	48 89 45 f8          	mov    %rax,-0x8(%rbp)
  402a4a:	31 c0                	xor    %eax,%eax
/home/user102/proxylab-handout/proxy.c:214
  402a4c:	48 8b 85 88 bf ff ff 	mov    -0x4078(%rbp),%rax
  402a53:	0f b6 40 23          	movzbl 0x23(%rax),%eax
  402a57:	84 c0                	test   %al,%al
  402a59:	74 0d                	je     402a68 <execRequest+0x3d>
/home/user102/proxylab-handout/proxy.c:214 (discriminator 1)
  402a5b:	48 8b 85 88 bf ff ff 	mov    -0x4078(%rbp),%rax
  402a62:	48 8b 40 18          	mov    0x18(%rax),%rax
  402a66:	eb 12                	jmp    402a7a <execRequest+0x4f>
/home/user102/proxylab-handout/proxy.c:214 (discriminator 2)
  402a68:	48 8b 85 88 bf ff ff 	mov    -0x4078(%rbp),%rax
  402a6f:	48 8b 00             	mov    (%rax),%rax
  402a72:	48 89 c7             	mov    %rax,%rdi
  402a75:	e8 4e 07 00 00       	callq  4031c8 <getHostFromURI>
/home/user102/proxylab-handout/proxy.c:214 (discriminator 4)
  402a7a:	48 89 85 b0 bf ff ff 	mov    %rax,-0x4050(%rbp)
/home/user102/proxylab-handout/proxy.c:215 (discriminator 4)
  402a81:	48 8b 85 88 bf ff ff 	mov    -0x4078(%rbp),%rax
  402a88:	48 8b 48 18          	mov    0x18(%rax),%rcx
  402a8c:	48 8b 85 88 bf ff ff 	mov    -0x4078(%rbp),%rax
  402a93:	0f b6 40 23          	movzbl 0x23(%rax),%eax
  402a97:	0f be d0             	movsbl %al,%edx
  402a9a:	48 8b 85 b0 bf ff ff 	mov    -0x4050(%rbp),%rax
  402aa1:	48 89 c6             	mov    %rax,%rsi
  402aa4:	bf f8 50 40 00       	mov    $0x4050f8,%edi
  402aa9:	b8 00 00 00 00       	mov    $0x0,%eax
  402aae:	e8 8d f0 ff ff       	callq  401b40 <printf@plt>
/home/user102/proxylab-handout/proxy.c:217 (discriminator 4)
  402ab3:	48 8b 85 88 bf ff ff 	mov    -0x4078(%rbp),%rax
  402aba:	48 8b 00             	mov    (%rax),%rax
  402abd:	48 89 c7             	mov    %rax,%rdi
  402ac0:	e8 12 07 00 00       	callq  4031d7 <guessPortFromURI>
  402ac5:	89 85 a0 bf ff ff    	mov    %eax,-0x4060(%rbp)
/home/user102/proxylab-handout/proxy.c:218 (discriminator 4)
  402acb:	8b 85 a0 bf ff ff    	mov    -0x4060(%rbp),%eax
  402ad1:	89 c6                	mov    %eax,%esi
  402ad3:	bf 1c 51 40 00       	mov    $0x40511c,%edi
  402ad8:	b8 00 00 00 00       	mov    $0x0,%eax
  402add:	e8 5e f0 ff ff       	callq  401b40 <printf@plt>
/home/user102/proxylab-handout/proxy.c:222 (discriminator 4)
  402ae2:	ba 00 00 00 00       	mov    $0x0,%edx
  402ae7:	be 01 00 00 00       	mov    $0x1,%esi
  402aec:	bf 02 00 00 00       	mov    $0x2,%edi
  402af1:	e8 6a f4 ff ff       	callq  401f60 <socket@plt>
  402af6:	89 85 a4 bf ff ff    	mov    %eax,-0x405c(%rbp)
  402afc:	83 bd a4 bf ff ff 00 	cmpl   $0x0,-0x405c(%rbp)
  402b03:	79 0a                	jns    402b0f <execRequest+0xe4>
/home/user102/proxylab-handout/proxy.c:223
  402b05:	b8 00 00 00 00       	mov    $0x0,%eax
  402b0a:	e9 66 05 00 00       	jmpq   403075 <execRequest+0x64a>
/home/user102/proxylab-handout/proxy.c:224
  402b0f:	48 8b 85 b0 bf ff ff 	mov    -0x4050(%rbp),%rax
  402b16:	48 89 c7             	mov    %rax,%rdi
  402b19:	e8 22 f1 ff ff       	callq  401c40 <gethostbyname@plt>
  402b1e:	48 89 85 b8 bf ff ff 	mov    %rax,-0x4048(%rbp)
  402b25:	48 83 bd b8 bf ff ff 	cmpq   $0x0,-0x4048(%rbp)
  402b2c:	00 
  402b2d:	75 0a                	jne    402b39 <execRequest+0x10e>
/home/user102/proxylab-handout/proxy.c:225
  402b2f:	b8 00 00 00 00       	mov    $0x0,%eax
  402b34:	e9 3c 05 00 00       	jmpq   403075 <execRequest+0x64a>
/home/user102/proxylab-handout/proxy.c:226
  402b39:	48 8d 85 d0 bf ff ff 	lea    -0x4030(%rbp),%rax
  402b40:	be 10 00 00 00       	mov    $0x10,%esi
  402b45:	48 89 c7             	mov    %rax,%rdi
  402b48:	e8 d3 f2 ff ff       	callq  401e20 <bzero@plt>
/home/user102/proxylab-handout/proxy.c:227
  402b4d:	66 c7 85 d0 bf ff ff 	movw   $0x2,-0x4030(%rbp)
  402b54:	02 00 
/home/user102/proxylab-handout/proxy.c:228
  402b56:	48 8b 85 b8 bf ff ff 	mov    -0x4048(%rbp),%rax
  402b5d:	8b 40 14             	mov    0x14(%rax),%eax
  402b60:	48 63 d0             	movslq %eax,%rdx
  402b63:	48 8b 85 b8 bf ff ff 	mov    -0x4048(%rbp),%rax
  402b6a:	48 8b 40 18          	mov    0x18(%rax),%rax
  402b6e:	48 8b 00             	mov    (%rax),%rax
  402b71:	48 8d 8d d0 bf ff ff 	lea    -0x4030(%rbp),%rcx
  402b78:	48 83 c1 04          	add    $0x4,%rcx
  402b7c:	48 89 ce             	mov    %rcx,%rsi
  402b7f:	48 89 c7             	mov    %rax,%rdi
  402b82:	e8 09 f2 ff ff       	callq  401d90 <bcopy@plt>
/home/user102/proxylab-handout/proxy.c:229
  402b87:	8b 85 a0 bf ff ff    	mov    -0x4060(%rbp),%eax
  402b8d:	0f b7 c0             	movzwl %ax,%eax
  402b90:	89 c7                	mov    %eax,%edi
  402b92:	e8 89 ef ff ff       	callq  401b20 <htons@plt>
  402b97:	66 89 85 d2 bf ff ff 	mov    %ax,-0x402e(%rbp)
/home/user102/proxylab-handout/proxy.c:230
  402b9e:	48 8d 8d d0 bf ff ff 	lea    -0x4030(%rbp),%rcx
  402ba5:	8b 85 a4 bf ff ff    	mov    -0x405c(%rbp),%eax
  402bab:	ba 10 00 00 00       	mov    $0x10,%edx
  402bb0:	48 89 ce             	mov    %rcx,%rsi
  402bb3:	89 c7                	mov    %eax,%edi
  402bb5:	e8 f6 f2 ff ff       	callq  401eb0 <connect@plt>
  402bba:	85 c0                	test   %eax,%eax
  402bbc:	79 0a                	jns    402bc8 <execRequest+0x19d>
/home/user102/proxylab-handout/proxy.c:231
  402bbe:	b8 00 00 00 00       	mov    $0x0,%eax
  402bc3:	e9 ad 04 00 00       	jmpq   403075 <execRequest+0x64a>
/home/user102/proxylab-handout/proxy.c:232
  402bc8:	bf 26 51 40 00       	mov    $0x405126,%edi
  402bcd:	e8 7e ee ff ff       	callq  401a50 <puts@plt>
/home/user102/proxylab-handout/proxy.c:233
  402bd2:	48 8b 85 88 bf ff ff 	mov    -0x4078(%rbp),%rax
  402bd9:	48 8b 08             	mov    (%rax),%rcx
  402bdc:	48 8b 85 88 bf ff ff 	mov    -0x4078(%rbp),%rax
  402be3:	48 8b 50 10          	mov    0x10(%rax),%rdx
  402be7:	48 8d 85 f0 df ff ff 	lea    -0x2010(%rbp),%rax
  402bee:	be 32 51 40 00       	mov    $0x405132,%esi
  402bf3:	48 89 c7             	mov    %rax,%rdi
  402bf6:	b8 00 00 00 00       	mov    $0x0,%eax
  402bfb:	e8 80 f2 ff ff       	callq  401e80 <sprintf@plt>
/home/user102/proxylab-handout/proxy.c:234
  402c00:	48 8d 85 f0 df ff ff 	lea    -0x2010(%rbp),%rax
  402c07:	48 89 c7             	mov    %rax,%rdi
  402c0a:	e8 e1 ee ff ff       	callq  401af0 <strlen@plt>
  402c0f:	48 89 c2             	mov    %rax,%rdx
  402c12:	48 8d 8d f0 df ff ff 	lea    -0x2010(%rbp),%rcx
  402c19:	8b 85 a4 bf ff ff    	mov    -0x405c(%rbp),%eax
  402c1f:	48 89 ce             	mov    %rcx,%rsi
  402c22:	89 c7                	mov    %eax,%edi
  402c24:	e8 6a 1d 00 00       	callq  404993 <Rio_writen>
/home/user102/proxylab-handout/proxy.c:235
  402c29:	48 8d 85 f0 df ff ff 	lea    -0x2010(%rbp),%rax
  402c30:	48 89 c6             	mov    %rax,%rsi
  402c33:	bf 43 51 40 00       	mov    $0x405143,%edi
  402c38:	b8 00 00 00 00       	mov    $0x0,%eax
  402c3d:	e8 fe ee ff ff       	callq  401b40 <printf@plt>
/home/user102/proxylab-handout/proxy.c:236
  402c42:	48 8b 85 88 bf ff ff 	mov    -0x4078(%rbp),%rax
  402c49:	0f b6 40 23          	movzbl 0x23(%rax),%eax
  402c4d:	84 c0                	test   %al,%al
  402c4f:	75 62                	jne    402cb3 <execRequest+0x288>
/home/user102/proxylab-handout/proxy.c:237
  402c51:	48 8b 95 b0 bf ff ff 	mov    -0x4050(%rbp),%rdx
  402c58:	48 8d 85 f0 df ff ff 	lea    -0x2010(%rbp),%rax
  402c5f:	be 4c 51 40 00       	mov    $0x40514c,%esi
  402c64:	48 89 c7             	mov    %rax,%rdi
  402c67:	b8 00 00 00 00       	mov    $0x0,%eax
  402c6c:	e8 0f f2 ff ff       	callq  401e80 <sprintf@plt>
/home/user102/proxylab-handout/proxy.c:238
  402c71:	48 8d 85 f0 df ff ff 	lea    -0x2010(%rbp),%rax
  402c78:	48 89 c7             	mov    %rax,%rdi
  402c7b:	e8 70 ee ff ff       	callq  401af0 <strlen@plt>
  402c80:	48 89 c2             	mov    %rax,%rdx
  402c83:	48 8d 8d f0 df ff ff 	lea    -0x2010(%rbp),%rcx
  402c8a:	8b 85 a4 bf ff ff    	mov    -0x405c(%rbp),%eax
  402c90:	48 89 ce             	mov    %rcx,%rsi
  402c93:	89 c7                	mov    %eax,%edi
  402c95:	e8 f9 1c 00 00       	callq  404993 <Rio_writen>
/home/user102/proxylab-handout/proxy.c:239
  402c9a:	48 8d 85 f0 df ff ff 	lea    -0x2010(%rbp),%rax
  402ca1:	48 89 c6             	mov    %rax,%rsi
  402ca4:	bf 43 51 40 00       	mov    $0x405143,%edi
  402ca9:	b8 00 00 00 00       	mov    $0x0,%eax
  402cae:	e8 8d ee ff ff       	callq  401b40 <printf@plt>
/home/user102/proxylab-handout/proxy.c:241
  402cb3:	48 8b 85 88 bf ff ff 	mov    -0x4078(%rbp),%rax
  402cba:	0f b6 40 20          	movzbl 0x20(%rax),%eax
  402cbe:	84 c0                	test   %al,%al
  402cc0:	75 69                	jne    402d2b <execRequest+0x300>
/home/user102/proxylab-handout/proxy.c:242
  402cc2:	48 8b 0d 3f 46 20 00 	mov    0x20463f(%rip),%rcx        # 607308 <user_agent_hdr>
  402cc9:	48 8b 15 60 46 20 00 	mov    0x204660(%rip),%rdx        # 607330 <user_agent>
  402cd0:	48 8d 85 f0 df ff ff 	lea    -0x2010(%rbp),%rax
  402cd7:	be 57 51 40 00       	mov    $0x405157,%esi
  402cdc:	48 89 c7             	mov    %rax,%rdi
  402cdf:	b8 00 00 00 00       	mov    $0x0,%eax
  402ce4:	e8 97 f1 ff ff       	callq  401e80 <sprintf@plt>
/home/user102/proxylab-handout/proxy.c:243
  402ce9:	48 8d 85 f0 df ff ff 	lea    -0x2010(%rbp),%rax
  402cf0:	48 89 c7             	mov    %rax,%rdi
  402cf3:	e8 f8 ed ff ff       	callq  401af0 <strlen@plt>
  402cf8:	48 89 c2             	mov    %rax,%rdx
  402cfb:	48 8d 8d f0 df ff ff 	lea    -0x2010(%rbp),%rcx
  402d02:	8b 85 a4 bf ff ff    	mov    -0x405c(%rbp),%eax
  402d08:	48 89 ce             	mov    %rcx,%rsi
  402d0b:	89 c7                	mov    %eax,%edi
  402d0d:	e8 81 1c 00 00       	callq  404993 <Rio_writen>
/home/user102/proxylab-handout/proxy.c:244
  402d12:	48 8d 85 f0 df ff ff 	lea    -0x2010(%rbp),%rax
  402d19:	48 89 c6             	mov    %rax,%rsi
  402d1c:	bf 43 51 40 00       	mov    $0x405143,%edi
  402d21:	b8 00 00 00 00       	mov    $0x0,%eax
  402d26:	e8 15 ee ff ff       	callq  401b40 <printf@plt>
/home/user102/proxylab-handout/proxy.c:246
  402d2b:	48 8b 85 88 bf ff ff 	mov    -0x4078(%rbp),%rax
  402d32:	0f b6 40 21          	movzbl 0x21(%rax),%eax
  402d36:	84 c0                	test   %al,%al
  402d38:	75 69                	jne    402da3 <execRequest+0x378>
/home/user102/proxylab-handout/proxy.c:247
  402d3a:	48 8b 0d cf 45 20 00 	mov    0x2045cf(%rip),%rcx        # 607310 <connection_close_hdr>
  402d41:	48 8b 15 d8 45 20 00 	mov    0x2045d8(%rip),%rdx        # 607320 <connection>
  402d48:	48 8d 85 f0 df ff ff 	lea    -0x2010(%rbp),%rax
  402d4f:	be 57 51 40 00       	mov    $0x405157,%esi
  402d54:	48 89 c7             	mov    %rax,%rdi
  402d57:	b8 00 00 00 00       	mov    $0x0,%eax
  402d5c:	e8 1f f1 ff ff       	callq  401e80 <sprintf@plt>
/home/user102/proxylab-handout/proxy.c:248
  402d61:	48 8d 85 f0 df ff ff 	lea    -0x2010(%rbp),%rax
  402d68:	48 89 c7             	mov    %rax,%rdi
  402d6b:	e8 80 ed ff ff       	callq  401af0 <strlen@plt>
  402d70:	48 89 c2             	mov    %rax,%rdx
  402d73:	48 8d 8d f0 df ff ff 	lea    -0x2010(%rbp),%rcx
  402d7a:	8b 85 a4 bf ff ff    	mov    -0x405c(%rbp),%eax
  402d80:	48 89 ce             	mov    %rcx,%rsi
  402d83:	89 c7                	mov    %eax,%edi
  402d85:	e8 09 1c 00 00       	callq  404993 <Rio_writen>
/home/user102/proxylab-handout/proxy.c:249
  402d8a:	48 8d 85 f0 df ff ff 	lea    -0x2010(%rbp),%rax
  402d91:	48 89 c6             	mov    %rax,%rsi
  402d94:	bf 43 51 40 00       	mov    $0x405143,%edi
  402d99:	b8 00 00 00 00       	mov    $0x0,%eax
  402d9e:	e8 9d ed ff ff       	callq  401b40 <printf@plt>
/home/user102/proxylab-handout/proxy.c:251
  402da3:	48 8b 85 88 bf ff ff 	mov    -0x4078(%rbp),%rax
  402daa:	0f b6 40 22          	movzbl 0x22(%rax),%eax
  402dae:	84 c0                	test   %al,%al
  402db0:	75 69                	jne    402e1b <execRequest+0x3f0>
/home/user102/proxylab-handout/proxy.c:252
  402db2:	48 8b 0d 5f 45 20 00 	mov    0x20455f(%rip),%rcx        # 607318 <proxy_connection_close_hdr>
  402db9:	48 8b 15 68 45 20 00 	mov    0x204568(%rip),%rdx        # 607328 <proxy_connection>
  402dc0:	48 8d 85 f0 df ff ff 	lea    -0x2010(%rbp),%rax
  402dc7:	be 57 51 40 00       	mov    $0x405157,%esi
  402dcc:	48 89 c7             	mov    %rax,%rdi
  402dcf:	b8 00 00 00 00       	mov    $0x0,%eax
  402dd4:	e8 a7 f0 ff ff       	callq  401e80 <sprintf@plt>
/home/user102/proxylab-handout/proxy.c:253
  402dd9:	48 8d 85 f0 df ff ff 	lea    -0x2010(%rbp),%rax
  402de0:	48 89 c7             	mov    %rax,%rdi
  402de3:	e8 08 ed ff ff       	callq  401af0 <strlen@plt>
  402de8:	48 89 c2             	mov    %rax,%rdx
  402deb:	48 8d 8d f0 df ff ff 	lea    -0x2010(%rbp),%rcx
  402df2:	8b 85 a4 bf ff ff    	mov    -0x405c(%rbp),%eax
  402df8:	48 89 ce             	mov    %rcx,%rsi
  402dfb:	89 c7                	mov    %eax,%edi
  402dfd:	e8 91 1b 00 00       	callq  404993 <Rio_writen>
/home/user102/proxylab-handout/proxy.c:254
  402e02:	48 8d 85 f0 df ff ff 	lea    -0x2010(%rbp),%rax
  402e09:	48 89 c6             	mov    %rax,%rsi
  402e0c:	bf 60 51 40 00       	mov    $0x405160,%edi
  402e11:	b8 00 00 00 00       	mov    $0x0,%eax
  402e16:	e8 25 ed ff ff       	callq  401b40 <printf@plt>
/home/user102/proxylab-handout/proxy.c:256
  402e1b:	48 8b 85 88 bf ff ff 	mov    -0x4078(%rbp),%rax
  402e22:	48 8b 40 38          	mov    0x38(%rax),%rax
  402e26:	48 89 85 a8 bf ff ff 	mov    %rax,-0x4058(%rbp)
/home/user102/proxylab-handout/proxy.c:257
  402e2d:	e9 82 00 00 00       	jmpq   402eb4 <execRequest+0x489>
/home/user102/proxylab-handout/proxy.c:258
  402e32:	48 8b 85 a8 bf ff ff 	mov    -0x4058(%rbp),%rax
  402e39:	48 8b 48 08          	mov    0x8(%rax),%rcx
  402e3d:	48 8b 85 a8 bf ff ff 	mov    -0x4058(%rbp),%rax
  402e44:	48 8b 10             	mov    (%rax),%rdx
  402e47:	48 8d 85 f0 df ff ff 	lea    -0x2010(%rbp),%rax
  402e4e:	be 57 51 40 00       	mov    $0x405157,%esi
  402e53:	48 89 c7             	mov    %rax,%rdi
  402e56:	b8 00 00 00 00       	mov    $0x0,%eax
  402e5b:	e8 20 f0 ff ff       	callq  401e80 <sprintf@plt>
/home/user102/proxylab-handout/proxy.c:259
  402e60:	48 8d 85 f0 df ff ff 	lea    -0x2010(%rbp),%rax
  402e67:	48 89 c7             	mov    %rax,%rdi
  402e6a:	e8 81 ec ff ff       	callq  401af0 <strlen@plt>
  402e6f:	48 89 c2             	mov    %rax,%rdx
  402e72:	48 8d 8d f0 df ff ff 	lea    -0x2010(%rbp),%rcx
  402e79:	8b 85 a4 bf ff ff    	mov    -0x405c(%rbp),%eax
  402e7f:	48 89 ce             	mov    %rcx,%rsi
  402e82:	89 c7                	mov    %eax,%edi
  402e84:	e8 0a 1b 00 00       	callq  404993 <Rio_writen>
/home/user102/proxylab-handout/proxy.c:260
  402e89:	48 8d 85 f0 df ff ff 	lea    -0x2010(%rbp),%rax
  402e90:	48 89 c6             	mov    %rax,%rsi
  402e93:	bf 43 51 40 00       	mov    $0x405143,%edi
  402e98:	b8 00 00 00 00       	mov    $0x0,%eax
  402e9d:	e8 9e ec ff ff       	callq  401b40 <printf@plt>
/home/user102/proxylab-handout/proxy.c:261
  402ea2:	48 8b 85 a8 bf ff ff 	mov    -0x4058(%rbp),%rax
  402ea9:	48 8b 40 10          	mov    0x10(%rax),%rax
  402ead:	48 89 85 a8 bf ff ff 	mov    %rax,-0x4058(%rbp)
/home/user102/proxylab-handout/proxy.c:257
  402eb4:	48 83 bd a8 bf ff ff 	cmpq   $0x0,-0x4058(%rbp)
  402ebb:	00 
  402ebc:	0f 85 70 ff ff ff    	jne    402e32 <execRequest+0x407>
/home/user102/proxylab-handout/proxy.c:263
  402ec2:	8b 85 a4 bf ff ff    	mov    -0x405c(%rbp),%eax
  402ec8:	ba 02 00 00 00       	mov    $0x2,%edx
  402ecd:	be 84 50 40 00       	mov    $0x405084,%esi
  402ed2:	89 c7                	mov    %eax,%edi
  402ed4:	e8 ba 1a 00 00       	callq  404993 <Rio_writen>
/home/user102/proxylab-handout/proxy.c:264
  402ed9:	48 8b 85 88 bf ff ff 	mov    -0x4078(%rbp),%rax
  402ee0:	48 8b 40 28          	mov    0x28(%rax),%rax
  402ee4:	48 85 c0             	test   %rax,%rax
  402ee7:	7e 29                	jle    402f12 <execRequest+0x4e7>
/home/user102/proxylab-handout/proxy.c:265
  402ee9:	48 8b 85 88 bf ff ff 	mov    -0x4078(%rbp),%rax
  402ef0:	48 8b 40 28          	mov    0x28(%rax),%rax
  402ef4:	48 89 c2             	mov    %rax,%rdx
  402ef7:	48 8b 85 88 bf ff ff 	mov    -0x4078(%rbp),%rax
  402efe:	48 8b 48 30          	mov    0x30(%rax),%rcx
  402f02:	8b 85 a4 bf ff ff    	mov    -0x405c(%rbp),%eax
  402f08:	48 89 ce             	mov    %rcx,%rsi
  402f0b:	89 c7                	mov    %eax,%edi
  402f0d:	e8 81 1a 00 00       	callq  404993 <Rio_writen>
/home/user102/proxylab-handout/proxy.c:268
  402f12:	48 c7 85 c0 bf ff ff 	movq   $0x0,-0x4040(%rbp)
  402f19:	00 00 00 00 
/home/user102/proxylab-handout/proxy.c:269
  402f1d:	c7 85 9c bf ff ff 00 	movl   $0x0,-0x4064(%rbp)
  402f24:	00 00 00 
/home/user102/proxylab-handout/proxy.c:270
  402f27:	bf 18 00 00 00       	mov    $0x18,%edi
  402f2c:	e8 df ed ff ff       	callq  401d10 <malloc@plt>
  402f31:	48 89 85 c8 bf ff ff 	mov    %rax,-0x4038(%rbp)
/home/user102/proxylab-handout/proxy.c:271
  402f38:	48 8b 85 c8 bf ff ff 	mov    -0x4038(%rbp),%rax
  402f3f:	48 c7 40 08 00 00 00 	movq   $0x0,0x8(%rax)
  402f46:	00 
/home/user102/proxylab-handout/proxy.c:272
  402f47:	bf 72 51 40 00       	mov    $0x405172,%edi
  402f4c:	e8 ff ea ff ff       	callq  401a50 <puts@plt>
/home/user102/proxylab-handout/proxy.c:274
  402f51:	8b 95 a4 bf ff ff    	mov    -0x405c(%rbp),%edx
  402f57:	48 8d 85 e0 bf ff ff 	lea    -0x4020(%rbp),%rax
  402f5e:	89 d6                	mov    %edx,%esi
  402f60:	48 89 c7             	mov    %rax,%rdi
  402f63:	e8 66 1a 00 00       	callq  4049ce <Rio_readinitb>
/home/user102/proxylab-handout/proxy.c:275
  402f68:	e9 9a 00 00 00       	jmpq   403007 <execRequest+0x5dc>
/home/user102/proxylab-handout/proxy.c:277
  402f6d:	48 8b 85 c0 bf ff ff 	mov    -0x4040(%rbp),%rax
  402f74:	48 89 c6             	mov    %rax,%rsi
  402f77:	bf d7 50 40 00       	mov    $0x4050d7,%edi
  402f7c:	b8 00 00 00 00       	mov    $0x0,%eax
  402f81:	e8 ba eb ff ff       	callq  401b40 <printf@plt>
/home/user102/proxylab-handout/proxy.c:278
  402f86:	48 8b 85 c0 bf ff ff 	mov    -0x4040(%rbp),%rax
  402f8d:	89 c2                	mov    %eax,%edx
  402f8f:	8b 85 9c bf ff ff    	mov    -0x4064(%rbp),%eax
  402f95:	01 d0                	add    %edx,%eax
  402f97:	89 85 9c bf ff ff    	mov    %eax,-0x4064(%rbp)
/home/user102/proxylab-handout/proxy.c:279
  402f9d:	8b 85 9c bf ff ff    	mov    -0x4064(%rbp),%eax
  402fa3:	48 63 d0             	movslq %eax,%rdx
  402fa6:	48 8b 85 c8 bf ff ff 	mov    -0x4038(%rbp),%rax
  402fad:	48 8b 40 08          	mov    0x8(%rax),%rax
  402fb1:	48 89 d6             	mov    %rdx,%rsi
  402fb4:	48 89 c7             	mov    %rax,%rdi
  402fb7:	e8 a4 ed ff ff       	callq  401d60 <realloc@plt>
  402fbc:	48 89 c2             	mov    %rax,%rdx
  402fbf:	48 8b 85 c8 bf ff ff 	mov    -0x4038(%rbp),%rax
  402fc6:	48 89 50 08          	mov    %rdx,0x8(%rax)
/home/user102/proxylab-handout/proxy.c:280
  402fca:	48 8b 95 c0 bf ff ff 	mov    -0x4040(%rbp),%rdx
  402fd1:	48 8b 85 c8 bf ff ff 	mov    -0x4038(%rbp),%rax
  402fd8:	48 8b 40 08          	mov    0x8(%rax),%rax
  402fdc:	8b 8d 9c bf ff ff    	mov    -0x4064(%rbp),%ecx
  402fe2:	48 63 f1             	movslq %ecx,%rsi
  402fe5:	48 8b 8d c0 bf ff ff 	mov    -0x4040(%rbp),%rcx
  402fec:	48 29 ce             	sub    %rcx,%rsi
  402fef:	48 89 f1             	mov    %rsi,%rcx
  402ff2:	48 01 c1             	add    %rax,%rcx
  402ff5:	48 8d 85 f0 df ff ff 	lea    -0x2010(%rbp),%rax
  402ffc:	48 89 c6             	mov    %rax,%rsi
  402fff:	48 89 cf             	mov    %rcx,%rdi
  403002:	e8 89 ec ff ff       	callq  401c90 <memcpy@plt>
/home/user102/proxylab-handout/proxy.c:275
  403007:	48 8d 8d f0 df ff ff 	lea    -0x2010(%rbp),%rcx
  40300e:	48 8d 85 e0 bf ff ff 	lea    -0x4020(%rbp),%rax
  403015:	ba 00 20 00 00       	mov    $0x2000,%edx
  40301a:	48 89 ce             	mov    %rcx,%rsi
  40301d:	48 89 c7             	mov    %rax,%rdi
  403020:	e8 cc 19 00 00       	callq  4049f1 <Rio_readnb>
  403025:	48 89 85 c0 bf ff ff 	mov    %rax,-0x4040(%rbp)
  40302c:	48 83 bd c0 bf ff ff 	cmpq   $0x0,-0x4040(%rbp)
  403033:	00 
  403034:	0f 8f 33 ff ff ff    	jg     402f6d <execRequest+0x542>
/home/user102/proxylab-handout/proxy.c:282
  40303a:	48 8b 85 c8 bf ff ff 	mov    -0x4038(%rbp),%rax
  403041:	8b 95 9c bf ff ff    	mov    -0x4064(%rbp),%edx
  403047:	89 50 10             	mov    %edx,0x10(%rax)
/home/user102/proxylab-handout/proxy.c:283
  40304a:	8b 85 9c bf ff ff    	mov    -0x4064(%rbp),%eax
  403050:	89 c6                	mov    %eax,%esi
  403052:	bf 7a 51 40 00       	mov    $0x40517a,%edi
  403057:	b8 00 00 00 00       	mov    $0x0,%eax
  40305c:	e8 df ea ff ff       	callq  401b40 <printf@plt>
/home/user102/proxylab-handout/proxy.c:284
  403061:	8b 85 a4 bf ff ff    	mov    -0x405c(%rbp),%eax
  403067:	89 c7                	mov    %eax,%edi
  403069:	e8 6d 0b 00 00       	callq  403bdb <Close>
/home/user102/proxylab-handout/proxy.c:285
  40306e:	48 8b 85 c8 bf ff ff 	mov    -0x4038(%rbp),%rax
/home/user102/proxylab-handout/proxy.c:286 (discriminator 1)
  403075:	48 8b 75 f8          	mov    -0x8(%rbp),%rsi
  403079:	64 48 33 34 25 28 00 	xor    %fs:0x28,%rsi
  403080:	00 00 
  403082:	74 05                	je     403089 <execRequest+0x65e>
/home/user102/proxylab-handout/proxy.c:286
  403084:	e8 77 ea ff ff       	callq  401b00 <__stack_chk_fail@plt>
  403089:	c9                   	leaveq 
  40308a:	c3                   	retq   

000000000040308b <freeParsedRequest>:
freeParsedRequest():
/home/user102/proxylab-handout/proxy.c:289
  40308b:	55                   	push   %rbp
  40308c:	48 89 e5             	mov    %rsp,%rbp
  40308f:	48 83 ec 20          	sub    $0x20,%rsp
  403093:	48 89 7d e8          	mov    %rdi,-0x18(%rbp)
/home/user102/proxylab-handout/proxy.c:290
  403097:	48 8b 45 e8          	mov    -0x18(%rbp),%rax
  40309b:	48 8b 00             	mov    (%rax),%rax
  40309e:	48 89 c7             	mov    %rax,%rdi
  4030a1:	e8 2a e9 ff ff       	callq  4019d0 <free@plt>
/home/user102/proxylab-handout/proxy.c:291
  4030a6:	48 8b 45 e8          	mov    -0x18(%rbp),%rax
  4030aa:	48 c7 00 00 00 00 00 	movq   $0x0,(%rax)
/home/user102/proxylab-handout/proxy.c:292
  4030b1:	48 8b 45 e8          	mov    -0x18(%rbp),%rax
  4030b5:	48 8b 40 08          	mov    0x8(%rax),%rax
  4030b9:	48 89 c7             	mov    %rax,%rdi
  4030bc:	e8 0f e9 ff ff       	callq  4019d0 <free@plt>
/home/user102/proxylab-handout/proxy.c:293
  4030c1:	48 8b 45 e8          	mov    -0x18(%rbp),%rax
  4030c5:	48 c7 40 08 00 00 00 	movq   $0x0,0x8(%rax)
  4030cc:	00 
/home/user102/proxylab-handout/proxy.c:294
  4030cd:	48 8b 45 e8          	mov    -0x18(%rbp),%rax
  4030d1:	48 8b 40 10          	mov    0x10(%rax),%rax
  4030d5:	48 89 c7             	mov    %rax,%rdi
  4030d8:	e8 f3 e8 ff ff       	callq  4019d0 <free@plt>
/home/user102/proxylab-handout/proxy.c:295
  4030dd:	48 8b 45 e8          	mov    -0x18(%rbp),%rax
  4030e1:	48 c7 40 10 00 00 00 	movq   $0x0,0x10(%rax)
  4030e8:	00 
/home/user102/proxylab-handout/proxy.c:296
  4030e9:	48 8b 45 e8          	mov    -0x18(%rbp),%rax
  4030ed:	48 8b 40 38          	mov    0x38(%rax),%rax
  4030f1:	48 89 45 f0          	mov    %rax,-0x10(%rbp)
/home/user102/proxylab-handout/proxy.c:297
  4030f5:	eb 3f                	jmp    403136 <freeParsedRequest+0xab>
/home/user102/proxylab-handout/proxy.c:298
  4030f7:	48 8b 45 f0          	mov    -0x10(%rbp),%rax
  4030fb:	48 8b 00             	mov    (%rax),%rax
  4030fe:	48 89 c7             	mov    %rax,%rdi
  403101:	e8 ca e8 ff ff       	callq  4019d0 <free@plt>
/home/user102/proxylab-handout/proxy.c:299
  403106:	48 8b 45 f0          	mov    -0x10(%rbp),%rax
  40310a:	48 8b 40 08          	mov    0x8(%rax),%rax
  40310e:	48 89 c7             	mov    %rax,%rdi
  403111:	e8 ba e8 ff ff       	callq  4019d0 <free@plt>
/home/user102/proxylab-handout/proxy.c:300
  403116:	48 8b 45 f0          	mov    -0x10(%rbp),%rax
  40311a:	48 89 45 f8          	mov    %rax,-0x8(%rbp)
/home/user102/proxylab-handout/proxy.c:301
  40311e:	48 8b 45 f0          	mov    -0x10(%rbp),%rax
  403122:	48 8b 40 10          	mov    0x10(%rax),%rax
  403126:	48 89 45 f0          	mov    %rax,-0x10(%rbp)
/home/user102/proxylab-handout/proxy.c:302
  40312a:	48 8b 45 f8          	mov    -0x8(%rbp),%rax
  40312e:	48 89 c7             	mov    %rax,%rdi
  403131:	e8 9a e8 ff ff       	callq  4019d0 <free@plt>
/home/user102/proxylab-handout/proxy.c:297
  403136:	48 83 7d f0 00       	cmpq   $0x0,-0x10(%rbp)
  40313b:	75 ba                	jne    4030f7 <freeParsedRequest+0x6c>
/home/user102/proxylab-handout/proxy.c:304
  40313d:	48 8b 45 e8          	mov    -0x18(%rbp),%rax
  403141:	48 c7 40 38 00 00 00 	movq   $0x0,0x38(%rax)
  403148:	00 
/home/user102/proxylab-handout/proxy.c:305
  403149:	48 8b 45 e8          	mov    -0x18(%rbp),%rax
  40314d:	48 8b 40 18          	mov    0x18(%rax),%rax
  403151:	48 89 c7             	mov    %rax,%rdi
  403154:	e8 77 e8 ff ff       	callq  4019d0 <free@plt>
/home/user102/proxylab-handout/proxy.c:306
  403159:	48 8b 45 e8          	mov    -0x18(%rbp),%rax
  40315d:	48 c7 40 18 00 00 00 	movq   $0x0,0x18(%rax)
  403164:	00 
/home/user102/proxylab-handout/proxy.c:307
  403165:	48 8b 45 e8          	mov    -0x18(%rbp),%rax
  403169:	48 8b 40 30          	mov    0x30(%rax),%rax
  40316d:	48 89 c7             	mov    %rax,%rdi
  403170:	e8 5b e8 ff ff       	callq  4019d0 <free@plt>
/home/user102/proxylab-handout/proxy.c:308
  403175:	48 8b 45 e8          	mov    -0x18(%rbp),%rax
  403179:	48 c7 40 30 00 00 00 	movq   $0x0,0x30(%rax)
  403180:	00 
/home/user102/proxylab-handout/proxy.c:309
  403181:	90                   	nop
  403182:	c9                   	leaveq 
  403183:	c3                   	retq   

0000000000403184 <replyRequest>:
replyRequest():
/home/user102/proxylab-handout/proxy.c:311
  403184:	55                   	push   %rbp
  403185:	48 89 e5             	mov    %rsp,%rbp
  403188:	48 83 ec 10          	sub    $0x10,%rsp
  40318c:	89 7d fc             	mov    %edi,-0x4(%rbp)
  40318f:	48 89 75 f0          	mov    %rsi,-0x10(%rbp)
/home/user102/proxylab-handout/proxy.c:312
  403193:	48 83 7d f0 00       	cmpq   $0x0,-0x10(%rbp)
  403198:	74 21                	je     4031bb <replyRequest+0x37>
/home/user102/proxylab-handout/proxy.c:313
  40319a:	48 8b 45 f0          	mov    -0x10(%rbp),%rax
  40319e:	8b 40 10             	mov    0x10(%rax),%eax
  4031a1:	48 63 d0             	movslq %eax,%rdx
  4031a4:	48 8b 45 f0          	mov    -0x10(%rbp),%rax
  4031a8:	48 8b 48 08          	mov    0x8(%rax),%rcx
  4031ac:	8b 45 fc             	mov    -0x4(%rbp),%eax
  4031af:	48 89 ce             	mov    %rcx,%rsi
  4031b2:	89 c7                	mov    %eax,%edi
  4031b4:	e8 da 17 00 00       	callq  404993 <Rio_writen>
/home/user102/proxylab-handout/proxy.c:316
  4031b9:	eb 0a                	jmp    4031c5 <replyRequest+0x41>
/home/user102/proxylab-handout/proxy.c:315
  4031bb:	bf 87 51 40 00       	mov    $0x405187,%edi
  4031c0:	e8 8b e8 ff ff       	callq  401a50 <puts@plt>
/home/user102/proxylab-handout/proxy.c:316
  4031c5:	90                   	nop
  4031c6:	c9                   	leaveq 
  4031c7:	c3                   	retq   

00000000004031c8 <getHostFromURI>:
getHostFromURI():
/home/user102/proxylab-handout/proxy.c:318
  4031c8:	55                   	push   %rbp
  4031c9:	48 89 e5             	mov    %rsp,%rbp
  4031cc:	48 89 7d f8          	mov    %rdi,-0x8(%rbp)
/home/user102/proxylab-handout/proxy.c:320
  4031d0:	b8 9f 51 40 00       	mov    $0x40519f,%eax
/home/user102/proxylab-handout/proxy.c:321
  4031d5:	5d                   	pop    %rbp
  4031d6:	c3                   	retq   

00000000004031d7 <guessPortFromURI>:
guessPortFromURI():
/home/user102/proxylab-handout/proxy.c:323
  4031d7:	55                   	push   %rbp
  4031d8:	48 89 e5             	mov    %rsp,%rbp
  4031db:	48 83 ec 30          	sub    $0x30,%rsp
  4031df:	48 89 7d d8          	mov    %rdi,-0x28(%rbp)
/home/user102/proxylab-handout/proxy.c:324
  4031e3:	48 83 7d d8 00       	cmpq   $0x0,-0x28(%rbp)
  4031e8:	75 0a                	jne    4031f4 <guessPortFromURI+0x1d>
/home/user102/proxylab-handout/proxy.c:325
  4031ea:	b8 50 00 00 00       	mov    $0x50,%eax
  4031ef:	e9 08 01 00 00       	jmpq   4032fc <guessPortFromURI+0x125>
/home/user102/proxylab-handout/proxy.c:326
  4031f4:	48 8b 45 d8          	mov    -0x28(%rbp),%rax
  4031f8:	48 89 c6             	mov    %rax,%rsi
  4031fb:	bf a0 51 40 00       	mov    $0x4051a0,%edi
  403200:	b8 00 00 00 00       	mov    $0x0,%eax
  403205:	e8 36 e9 ff ff       	callq  401b40 <printf@plt>
/home/user102/proxylab-handout/proxy.c:327
  40320a:	c7 45 f0 00 00 00 00 	movl   $0x0,-0x10(%rbp)
/home/user102/proxylab-handout/proxy.c:328
  403211:	48 c7 45 f8 00 00 00 	movq   $0x0,-0x8(%rbp)
  403218:	00 
/home/user102/proxylab-handout/proxy.c:329
  403219:	c7 45 f4 00 00 00 00 	movl   $0x0,-0xc(%rbp)
/home/user102/proxylab-handout/proxy.c:330
  403220:	e9 9f 00 00 00       	jmpq   4032c4 <guessPortFromURI+0xed>
/home/user102/proxylab-handout/proxy.c:331
  403225:	48 8b 45 d8          	mov    -0x28(%rbp),%rax
  403229:	0f b6 00             	movzbl (%rax),%eax
  40322c:	88 45 ef             	mov    %al,-0x11(%rbp)
/home/user102/proxylab-handout/proxy.c:332
  40322f:	48 8b 45 d8          	mov    -0x28(%rbp),%rax
  403233:	0f b6 00             	movzbl (%rax),%eax
  403236:	3c 3a                	cmp    $0x3a,%al
  403238:	75 11                	jne    40324b <guessPortFromURI+0x74>
/home/user102/proxylab-handout/proxy.c:333
  40323a:	c7 45 f0 01 00 00 00 	movl   $0x1,-0x10(%rbp)
/home/user102/proxylab-handout/proxy.c:334
  403241:	48 c7 45 f8 00 00 00 	movq   $0x0,-0x8(%rbp)
  403248:	00 
  403249:	eb 6e                	jmp    4032b9 <guessPortFromURI+0xe2>
/home/user102/proxylab-handout/proxy.c:336
  40324b:	e8 f0 ec ff ff       	callq  401f40 <__ctype_b_loc@plt>
  403250:	48 8b 00             	mov    (%rax),%rax
  403253:	48 0f be 55 ef       	movsbq -0x11(%rbp),%rdx
  403258:	48 01 d2             	add    %rdx,%rdx
  40325b:	48 01 d0             	add    %rdx,%rax
  40325e:	0f b7 00             	movzwl (%rax),%eax
  403261:	0f b7 c0             	movzwl %ax,%eax
  403264:	25 00 08 00 00       	and    $0x800,%eax
  403269:	85 c0                	test   %eax,%eax
  40326b:	74 17                	je     403284 <guessPortFromURI+0xad>
/home/user102/proxylab-handout/proxy.c:337
  40326d:	83 7d f0 01          	cmpl   $0x1,-0x10(%rbp)
  403271:	75 46                	jne    4032b9 <guessPortFromURI+0xe2>
/home/user102/proxylab-handout/proxy.c:338
  403273:	48 8b 45 d8          	mov    -0x28(%rbp),%rax
  403277:	48 89 45 f8          	mov    %rax,-0x8(%rbp)
/home/user102/proxylab-handout/proxy.c:339
  40327b:	c7 45 f0 02 00 00 00 	movl   $0x2,-0x10(%rbp)
  403282:	eb 35                	jmp    4032b9 <guessPortFromURI+0xe2>
/home/user102/proxylab-handout/proxy.c:345
  403284:	80 7d ef 2f          	cmpb   $0x2f,-0x11(%rbp)
  403288:	75 20                	jne    4032aa <guessPortFromURI+0xd3>
/home/user102/proxylab-handout/proxy.c:346
  40328a:	83 7d f0 02          	cmpl   $0x2,-0x10(%rbp)
  40328e:	75 09                	jne    403299 <guessPortFromURI+0xc2>
/home/user102/proxylab-handout/proxy.c:348
  403290:	c7 45 f0 03 00 00 00 	movl   $0x3,-0x10(%rbp)
  403297:	eb 20                	jmp    4032b9 <guessPortFromURI+0xe2>
/home/user102/proxylab-handout/proxy.c:350
  403299:	48 c7 45 f8 00 00 00 	movq   $0x0,-0x8(%rbp)
  4032a0:	00 
/home/user102/proxylab-handout/proxy.c:351
  4032a1:	c7 45 f0 00 00 00 00 	movl   $0x0,-0x10(%rbp)
  4032a8:	eb 0f                	jmp    4032b9 <guessPortFromURI+0xe2>
/home/user102/proxylab-handout/proxy.c:354
  4032aa:	48 c7 45 f8 00 00 00 	movq   $0x0,-0x8(%rbp)
  4032b1:	00 
/home/user102/proxylab-handout/proxy.c:355
  4032b2:	c7 45 f0 00 00 00 00 	movl   $0x0,-0x10(%rbp)
/home/user102/proxylab-handout/proxy.c:357
  4032b9:	83 7d f0 03          	cmpl   $0x3,-0x10(%rbp)
  4032bd:	74 16                	je     4032d5 <guessPortFromURI+0xfe>
/home/user102/proxylab-handout/proxy.c:359
  4032bf:	48 83 45 d8 01       	addq   $0x1,-0x28(%rbp)
/home/user102/proxylab-handout/proxy.c:330
  4032c4:	48 8b 45 d8          	mov    -0x28(%rbp),%rax
  4032c8:	0f b6 00             	movzbl (%rax),%eax
  4032cb:	84 c0                	test   %al,%al
  4032cd:	0f 85 52 ff ff ff    	jne    403225 <guessPortFromURI+0x4e>
  4032d3:	eb 01                	jmp    4032d6 <guessPortFromURI+0xff>
/home/user102/proxylab-handout/proxy.c:358
  4032d5:	90                   	nop
/home/user102/proxylab-handout/proxy.c:361
  4032d6:	48 83 7d f8 00       	cmpq   $0x0,-0x8(%rbp)
  4032db:	74 0f                	je     4032ec <guessPortFromURI+0x115>
/home/user102/proxylab-handout/proxy.c:362
  4032dd:	48 8b 45 f8          	mov    -0x8(%rbp),%rax
  4032e1:	48 89 c7             	mov    %rax,%rdi
  4032e4:	e8 67 eb ff ff       	callq  401e50 <atoi@plt>
  4032e9:	89 45 f4             	mov    %eax,-0xc(%rbp)
/home/user102/proxylab-handout/proxy.c:363
  4032ec:	83 7d f4 00          	cmpl   $0x0,-0xc(%rbp)
  4032f0:	75 07                	jne    4032f9 <guessPortFromURI+0x122>
/home/user102/proxylab-handout/proxy.c:364
  4032f2:	c7 45 f4 50 00 00 00 	movl   $0x50,-0xc(%rbp)
/home/user102/proxylab-handout/proxy.c:365
  4032f9:	8b 45 f4             	mov    -0xc(%rbp),%eax
/home/user102/proxylab-handout/proxy.c:366
  4032fc:	c9                   	leaveq 
  4032fd:	c3                   	retq   

00000000004032fe <trimwhitespace>:
trimwhitespace():
/home/user102/proxylab-handout/proxy.c:375
  4032fe:	55                   	push   %rbp
  4032ff:	48 89 e5             	mov    %rsp,%rbp
  403302:	48 83 ec 20          	sub    $0x20,%rsp
  403306:	48 89 7d e8          	mov    %rdi,-0x18(%rbp)
/home/user102/proxylab-handout/proxy.c:379
  40330a:	eb 05                	jmp    403311 <trimwhitespace+0x13>
/home/user102/proxylab-handout/proxy.c:379 (discriminator 2)
  40330c:	48 83 45 e8 01       	addq   $0x1,-0x18(%rbp)
/home/user102/proxylab-handout/proxy.c:379 (discriminator 1)
  403311:	e8 2a ec ff ff       	callq  401f40 <__ctype_b_loc@plt>
  403316:	48 8b 10             	mov    (%rax),%rdx
  403319:	48 8b 45 e8          	mov    -0x18(%rbp),%rax
  40331d:	0f b6 00             	movzbl (%rax),%eax
  403320:	0f b6 c0             	movzbl %al,%eax
  403323:	48 01 c0             	add    %rax,%rax
  403326:	48 01 d0             	add    %rdx,%rax
  403329:	0f b7 00             	movzwl (%rax),%eax
  40332c:	0f b7 c0             	movzwl %ax,%eax
  40332f:	25 00 20 00 00       	and    $0x2000,%eax
  403334:	85 c0                	test   %eax,%eax
  403336:	75 d4                	jne    40330c <trimwhitespace+0xe>
/home/user102/proxylab-handout/proxy.c:381
  403338:	48 8b 45 e8          	mov    -0x18(%rbp),%rax
  40333c:	0f b6 00             	movzbl (%rax),%eax
  40333f:	84 c0                	test   %al,%al
  403341:	75 06                	jne    403349 <trimwhitespace+0x4b>
/home/user102/proxylab-handout/proxy.c:382
  403343:	48 8b 45 e8          	mov    -0x18(%rbp),%rax
  403347:	eb 62                	jmp    4033ab <trimwhitespace+0xad>
/home/user102/proxylab-handout/proxy.c:385
  403349:	48 8b 45 e8          	mov    -0x18(%rbp),%rax
  40334d:	48 89 c7             	mov    %rax,%rdi
  403350:	e8 9b e7 ff ff       	callq  401af0 <strlen@plt>
  403355:	48 8d 50 ff          	lea    -0x1(%rax),%rdx
  403359:	48 8b 45 e8          	mov    -0x18(%rbp),%rax
  40335d:	48 01 d0             	add    %rdx,%rax
  403360:	48 89 45 f8          	mov    %rax,-0x8(%rbp)
/home/user102/proxylab-handout/proxy.c:386
  403364:	eb 05                	jmp    40336b <trimwhitespace+0x6d>
/home/user102/proxylab-handout/proxy.c:386 (discriminator 3)
  403366:	48 83 6d f8 01       	subq   $0x1,-0x8(%rbp)
/home/user102/proxylab-handout/proxy.c:386 (discriminator 1)
  40336b:	48 8b 45 f8          	mov    -0x8(%rbp),%rax
  40336f:	48 3b 45 e8          	cmp    -0x18(%rbp),%rax
  403373:	76 27                	jbe    40339c <trimwhitespace+0x9e>
/home/user102/proxylab-handout/proxy.c:386 (discriminator 2)
  403375:	e8 c6 eb ff ff       	callq  401f40 <__ctype_b_loc@plt>
  40337a:	48 8b 10             	mov    (%rax),%rdx
  40337d:	48 8b 45 f8          	mov    -0x8(%rbp),%rax
  403381:	0f b6 00             	movzbl (%rax),%eax
  403384:	0f b6 c0             	movzbl %al,%eax
  403387:	48 01 c0             	add    %rax,%rax
  40338a:	48 01 d0             	add    %rdx,%rax
  40338d:	0f b7 00             	movzwl (%rax),%eax
  403390:	0f b7 c0             	movzwl %ax,%eax
  403393:	25 00 20 00 00       	and    $0x2000,%eax
  403398:	85 c0                	test   %eax,%eax
  40339a:	75 ca                	jne    403366 <trimwhitespace+0x68>
/home/user102/proxylab-handout/proxy.c:389
  40339c:	48 8b 45 f8          	mov    -0x8(%rbp),%rax
  4033a0:	48 83 c0 01          	add    $0x1,%rax
  4033a4:	c6 00 00             	movb   $0x0,(%rax)
/home/user102/proxylab-handout/proxy.c:391
  4033a7:	48 8b 45 e8          	mov    -0x18(%rbp),%rax
/home/user102/proxylab-handout/proxy.c:392
  4033ab:	c9                   	leaveq 
  4033ac:	c3                   	retq   

00000000004033ad <unix_error>:
unix_error():
/home/user102/proxylab-handout/csapp.c:30
  4033ad:	55                   	push   %rbp
  4033ae:	48 89 e5             	mov    %rsp,%rbp
  4033b1:	48 83 ec 10          	sub    $0x10,%rsp
  4033b5:	48 89 7d f8          	mov    %rdi,-0x8(%rbp)
/home/user102/proxylab-handout/csapp.c:31
  4033b9:	e8 52 e6 ff ff       	callq  401a10 <__errno_location@plt>
  4033be:	8b 00                	mov    (%rax),%eax
  4033c0:	89 c7                	mov    %eax,%edi
  4033c2:	e8 29 eb ff ff       	callq  401ef0 <strerror@plt>
  4033c7:	48 89 c1             	mov    %rax,%rcx
  4033ca:	48 8b 05 8f 3f 20 00 	mov    0x203f8f(%rip),%rax        # 607360 <stderr@@GLIBC_2.2.5>
  4033d1:	48 8b 55 f8          	mov    -0x8(%rbp),%rdx
  4033d5:	be c0 51 40 00       	mov    $0x4051c0,%esi
  4033da:	48 89 c7             	mov    %rax,%rdi
  4033dd:	b8 00 00 00 00       	mov    $0x0,%eax
  4033e2:	e8 79 e8 ff ff       	callq  401c60 <fprintf@plt>
/home/user102/proxylab-handout/csapp.c:32
  4033e7:	bf 00 00 00 00       	mov    $0x0,%edi
  4033ec:	e8 af ea ff ff       	callq  401ea0 <exit@plt>

00000000004033f1 <posix_error>:
posix_error():
/home/user102/proxylab-handout/csapp.c:37
  4033f1:	55                   	push   %rbp
  4033f2:	48 89 e5             	mov    %rsp,%rbp
  4033f5:	48 83 ec 10          	sub    $0x10,%rsp
  4033f9:	89 7d fc             	mov    %edi,-0x4(%rbp)
  4033fc:	48 89 75 f0          	mov    %rsi,-0x10(%rbp)
/home/user102/proxylab-handout/csapp.c:38
  403400:	8b 45 fc             	mov    -0x4(%rbp),%eax
  403403:	89 c7                	mov    %eax,%edi
  403405:	e8 e6 ea ff ff       	callq  401ef0 <strerror@plt>
  40340a:	48 89 c1             	mov    %rax,%rcx
  40340d:	48 8b 05 4c 3f 20 00 	mov    0x203f4c(%rip),%rax        # 607360 <stderr@@GLIBC_2.2.5>
  403414:	48 8b 55 f0          	mov    -0x10(%rbp),%rdx
  403418:	be c0 51 40 00       	mov    $0x4051c0,%esi
  40341d:	48 89 c7             	mov    %rax,%rdi
  403420:	b8 00 00 00 00       	mov    $0x0,%eax
  403425:	e8 36 e8 ff ff       	callq  401c60 <fprintf@plt>
/home/user102/proxylab-handout/csapp.c:39
  40342a:	bf 00 00 00 00       	mov    $0x0,%edi
  40342f:	e8 6c ea ff ff       	callq  401ea0 <exit@plt>

0000000000403434 <gai_error>:
gai_error():
/home/user102/proxylab-handout/csapp.c:43
  403434:	55                   	push   %rbp
  403435:	48 89 e5             	mov    %rsp,%rbp
  403438:	48 83 ec 10          	sub    $0x10,%rsp
  40343c:	89 7d fc             	mov    %edi,-0x4(%rbp)
  40343f:	48 89 75 f0          	mov    %rsi,-0x10(%rbp)
/home/user102/proxylab-handout/csapp.c:44
  403443:	8b 45 fc             	mov    -0x4(%rbp),%eax
  403446:	89 c7                	mov    %eax,%edi
  403448:	e8 03 e7 ff ff       	callq  401b50 <gai_strerror@plt>
  40344d:	48 89 c1             	mov    %rax,%rcx
  403450:	48 8b 05 09 3f 20 00 	mov    0x203f09(%rip),%rax        # 607360 <stderr@@GLIBC_2.2.5>
  403457:	48 8b 55 f0          	mov    -0x10(%rbp),%rdx
  40345b:	be c0 51 40 00       	mov    $0x4051c0,%esi
  403460:	48 89 c7             	mov    %rax,%rdi
  403463:	b8 00 00 00 00       	mov    $0x0,%eax
  403468:	e8 f3 e7 ff ff       	callq  401c60 <fprintf@plt>
/home/user102/proxylab-handout/csapp.c:45
  40346d:	bf 00 00 00 00       	mov    $0x0,%edi
  403472:	e8 29 ea ff ff       	callq  401ea0 <exit@plt>

0000000000403477 <app_error>:
app_error():
/home/user102/proxylab-handout/csapp.c:49
  403477:	55                   	push   %rbp
  403478:	48 89 e5             	mov    %rsp,%rbp
  40347b:	48 83 ec 10          	sub    $0x10,%rsp
  40347f:	48 89 7d f8          	mov    %rdi,-0x8(%rbp)
/home/user102/proxylab-handout/csapp.c:50
  403483:	48 8b 05 d6 3e 20 00 	mov    0x203ed6(%rip),%rax        # 607360 <stderr@@GLIBC_2.2.5>
  40348a:	48 8b 55 f8          	mov    -0x8(%rbp),%rdx
  40348e:	be c8 51 40 00       	mov    $0x4051c8,%esi
  403493:	48 89 c7             	mov    %rax,%rdi
  403496:	b8 00 00 00 00       	mov    $0x0,%eax
  40349b:	e8 c0 e7 ff ff       	callq  401c60 <fprintf@plt>
/home/user102/proxylab-handout/csapp.c:51
  4034a0:	bf 00 00 00 00       	mov    $0x0,%edi
  4034a5:	e8 f6 e9 ff ff       	callq  401ea0 <exit@plt>

00000000004034aa <dns_error>:
dns_error():
/home/user102/proxylab-handout/csapp.c:56
  4034aa:	55                   	push   %rbp
  4034ab:	48 89 e5             	mov    %rsp,%rbp
  4034ae:	48 83 ec 10          	sub    $0x10,%rsp
  4034b2:	48 89 7d f8          	mov    %rdi,-0x8(%rbp)
/home/user102/proxylab-handout/csapp.c:57
  4034b6:	48 8b 05 a3 3e 20 00 	mov    0x203ea3(%rip),%rax        # 607360 <stderr@@GLIBC_2.2.5>
  4034bd:	48 8b 55 f8          	mov    -0x8(%rbp),%rdx
  4034c1:	be c8 51 40 00       	mov    $0x4051c8,%esi
  4034c6:	48 89 c7             	mov    %rax,%rdi
  4034c9:	b8 00 00 00 00       	mov    $0x0,%eax
  4034ce:	e8 8d e7 ff ff       	callq  401c60 <fprintf@plt>
/home/user102/proxylab-handout/csapp.c:58
  4034d3:	bf 00 00 00 00       	mov    $0x0,%edi
  4034d8:	e8 c3 e9 ff ff       	callq  401ea0 <exit@plt>

00000000004034dd <Fork>:
Fork():
/home/user102/proxylab-handout/csapp.c:68
  4034dd:	55                   	push   %rbp
  4034de:	48 89 e5             	mov    %rsp,%rbp
  4034e1:	48 83 ec 10          	sub    $0x10,%rsp
/home/user102/proxylab-handout/csapp.c:71
  4034e5:	e8 46 ea ff ff       	callq  401f30 <fork@plt>
  4034ea:	89 45 fc             	mov    %eax,-0x4(%rbp)
  4034ed:	83 7d fc 00          	cmpl   $0x0,-0x4(%rbp)
  4034f1:	79 0a                	jns    4034fd <Fork+0x20>
/home/user102/proxylab-handout/csapp.c:72
  4034f3:	bf cc 51 40 00       	mov    $0x4051cc,%edi
  4034f8:	e8 b0 fe ff ff       	callq  4033ad <unix_error>
/home/user102/proxylab-handout/csapp.c:73
  4034fd:	8b 45 fc             	mov    -0x4(%rbp),%eax
/home/user102/proxylab-handout/csapp.c:74
  403500:	c9                   	leaveq 
  403501:	c3                   	retq   

0000000000403502 <Execve>:
Execve():
/home/user102/proxylab-handout/csapp.c:78
  403502:	55                   	push   %rbp
  403503:	48 89 e5             	mov    %rsp,%rbp
  403506:	48 83 ec 20          	sub    $0x20,%rsp
  40350a:	48 89 7d f8          	mov    %rdi,-0x8(%rbp)
  40350e:	48 89 75 f0          	mov    %rsi,-0x10(%rbp)
  403512:	48 89 55 e8          	mov    %rdx,-0x18(%rbp)
/home/user102/proxylab-handout/csapp.c:79
  403516:	48 8b 55 e8          	mov    -0x18(%rbp),%rdx
  40351a:	48 8b 4d f0          	mov    -0x10(%rbp),%rcx
  40351e:	48 8b 45 f8          	mov    -0x8(%rbp),%rax
  403522:	48 89 ce             	mov    %rcx,%rsi
  403525:	48 89 c7             	mov    %rax,%rdi
  403528:	e8 e3 e6 ff ff       	callq  401c10 <execve@plt>
  40352d:	85 c0                	test   %eax,%eax
  40352f:	79 0a                	jns    40353b <Execve+0x39>
/home/user102/proxylab-handout/csapp.c:80
  403531:	bf d7 51 40 00       	mov    $0x4051d7,%edi
  403536:	e8 72 fe ff ff       	callq  4033ad <unix_error>
/home/user102/proxylab-handout/csapp.c:81
  40353b:	90                   	nop
  40353c:	c9                   	leaveq 
  40353d:	c3                   	retq   

000000000040353e <Wait>:
Wait():
/home/user102/proxylab-handout/csapp.c:85
  40353e:	55                   	push   %rbp
  40353f:	48 89 e5             	mov    %rsp,%rbp
  403542:	48 83 ec 20          	sub    $0x20,%rsp
  403546:	48 89 7d e8          	mov    %rdi,-0x18(%rbp)
/home/user102/proxylab-handout/csapp.c:88
  40354a:	48 8b 45 e8          	mov    -0x18(%rbp),%rax
  40354e:	48 89 c7             	mov    %rax,%rdi
  403551:	e8 ba e9 ff ff       	callq  401f10 <wait@plt>
  403556:	89 45 fc             	mov    %eax,-0x4(%rbp)
  403559:	83 7d fc 00          	cmpl   $0x0,-0x4(%rbp)
  40355d:	79 0a                	jns    403569 <Wait+0x2b>
/home/user102/proxylab-handout/csapp.c:89
  40355f:	bf e4 51 40 00       	mov    $0x4051e4,%edi
  403564:	e8 44 fe ff ff       	callq  4033ad <unix_error>
/home/user102/proxylab-handout/csapp.c:90
  403569:	8b 45 fc             	mov    -0x4(%rbp),%eax
/home/user102/proxylab-handout/csapp.c:91
  40356c:	c9                   	leaveq 
  40356d:	c3                   	retq   

000000000040356e <Waitpid>:
Waitpid():
/home/user102/proxylab-handout/csapp.c:95
  40356e:	55                   	push   %rbp
  40356f:	48 89 e5             	mov    %rsp,%rbp
  403572:	48 83 ec 20          	sub    $0x20,%rsp
  403576:	89 7d ec             	mov    %edi,-0x14(%rbp)
  403579:	48 89 75 e0          	mov    %rsi,-0x20(%rbp)
  40357d:	89 55 e8             	mov    %edx,-0x18(%rbp)
/home/user102/proxylab-handout/csapp.c:98
  403580:	8b 55 e8             	mov    -0x18(%rbp),%edx
  403583:	48 8b 4d e0          	mov    -0x20(%rbp),%rcx
  403587:	8b 45 ec             	mov    -0x14(%rbp),%eax
  40358a:	48 89 ce             	mov    %rcx,%rsi
  40358d:	89 c7                	mov    %eax,%edi
  40358f:	e8 2c e8 ff ff       	callq  401dc0 <waitpid@plt>
  403594:	89 45 fc             	mov    %eax,-0x4(%rbp)
  403597:	83 7d fc 00          	cmpl   $0x0,-0x4(%rbp)
  40359b:	79 0a                	jns    4035a7 <Waitpid+0x39>
/home/user102/proxylab-handout/csapp.c:99
  40359d:	bf ef 51 40 00       	mov    $0x4051ef,%edi
  4035a2:	e8 06 fe ff ff       	callq  4033ad <unix_error>
/home/user102/proxylab-handout/csapp.c:100
  4035a7:	8b 45 fc             	mov    -0x4(%rbp),%eax
/home/user102/proxylab-handout/csapp.c:101
  4035aa:	c9                   	leaveq 
  4035ab:	c3                   	retq   

00000000004035ac <Kill>:
Kill():
/home/user102/proxylab-handout/csapp.c:105
  4035ac:	55                   	push   %rbp
  4035ad:	48 89 e5             	mov    %rsp,%rbp
  4035b0:	48 83 ec 20          	sub    $0x20,%rsp
  4035b4:	89 7d ec             	mov    %edi,-0x14(%rbp)
  4035b7:	89 75 e8             	mov    %esi,-0x18(%rbp)
/home/user102/proxylab-handout/csapp.c:108
  4035ba:	8b 55 e8             	mov    -0x18(%rbp),%edx
  4035bd:	8b 45 ec             	mov    -0x14(%rbp),%eax
  4035c0:	89 d6                	mov    %edx,%esi
  4035c2:	89 c7                	mov    %eax,%edi
  4035c4:	e8 e7 e6 ff ff       	callq  401cb0 <kill@plt>
  4035c9:	89 45 fc             	mov    %eax,-0x4(%rbp)
  4035cc:	83 7d fc 00          	cmpl   $0x0,-0x4(%rbp)
  4035d0:	79 0a                	jns    4035dc <Kill+0x30>
/home/user102/proxylab-handout/csapp.c:109
  4035d2:	bf fd 51 40 00       	mov    $0x4051fd,%edi
  4035d7:	e8 d1 fd ff ff       	callq  4033ad <unix_error>
/home/user102/proxylab-handout/csapp.c:110
  4035dc:	90                   	nop
  4035dd:	c9                   	leaveq 
  4035de:	c3                   	retq   

00000000004035df <Pause>:
Pause():
/home/user102/proxylab-handout/csapp.c:114
  4035df:	55                   	push   %rbp
  4035e0:	48 89 e5             	mov    %rsp,%rbp
/home/user102/proxylab-handout/csapp.c:115
  4035e3:	e8 08 e7 ff ff       	callq  401cf0 <pause@plt>
/home/user102/proxylab-handout/csapp.c:116
  4035e8:	90                   	nop
/home/user102/proxylab-handout/csapp.c:117
  4035e9:	5d                   	pop    %rbp
  4035ea:	c3                   	retq   

00000000004035eb <Sleep>:
Sleep():
/home/user102/proxylab-handout/csapp.c:120
  4035eb:	55                   	push   %rbp
  4035ec:	48 89 e5             	mov    %rsp,%rbp
  4035ef:	48 83 ec 20          	sub    $0x20,%rsp
  4035f3:	89 7d ec             	mov    %edi,-0x14(%rbp)
/home/user102/proxylab-handout/csapp.c:123
  4035f6:	8b 45 ec             	mov    -0x14(%rbp),%eax
  4035f9:	89 c7                	mov    %eax,%edi
  4035fb:	e8 00 e9 ff ff       	callq  401f00 <sleep@plt>
  403600:	89 45 fc             	mov    %eax,-0x4(%rbp)
/home/user102/proxylab-handout/csapp.c:125
  403603:	8b 45 fc             	mov    -0x4(%rbp),%eax
/home/user102/proxylab-handout/csapp.c:126
  403606:	c9                   	leaveq 
  403607:	c3                   	retq   

0000000000403608 <Alarm>:
Alarm():
/home/user102/proxylab-handout/csapp.c:128
  403608:	55                   	push   %rbp
  403609:	48 89 e5             	mov    %rsp,%rbp
  40360c:	48 83 ec 10          	sub    $0x10,%rsp
  403610:	89 7d fc             	mov    %edi,-0x4(%rbp)
/home/user102/proxylab-handout/csapp.c:129
  403613:	8b 45 fc             	mov    -0x4(%rbp),%eax
  403616:	89 c7                	mov    %eax,%edi
  403618:	e8 73 e5 ff ff       	callq  401b90 <alarm@plt>
/home/user102/proxylab-handout/csapp.c:130
  40361d:	c9                   	leaveq 
  40361e:	c3                   	retq   

000000000040361f <Setpgid>:
Setpgid():
/home/user102/proxylab-handout/csapp.c:132
  40361f:	55                   	push   %rbp
  403620:	48 89 e5             	mov    %rsp,%rbp
  403623:	48 83 ec 20          	sub    $0x20,%rsp
  403627:	89 7d ec             	mov    %edi,-0x14(%rbp)
  40362a:	89 75 e8             	mov    %esi,-0x18(%rbp)
/home/user102/proxylab-handout/csapp.c:135
  40362d:	8b 55 e8             	mov    -0x18(%rbp),%edx
  403630:	8b 45 ec             	mov    -0x14(%rbp),%eax
  403633:	89 d6                	mov    %edx,%esi
  403635:	89 c7                	mov    %eax,%edi
  403637:	e8 24 e8 ff ff       	callq  401e60 <setpgid@plt>
  40363c:	89 45 fc             	mov    %eax,-0x4(%rbp)
  40363f:	83 7d fc 00          	cmpl   $0x0,-0x4(%rbp)
  403643:	79 0b                	jns    403650 <Setpgid+0x31>
/home/user102/proxylab-handout/csapp.c:136
  403645:	bf 08 52 40 00       	mov    $0x405208,%edi
  40364a:	e8 5e fd ff ff       	callq  4033ad <unix_error>
/home/user102/proxylab-handout/csapp.c:137
  40364f:	90                   	nop
  403650:	90                   	nop
/home/user102/proxylab-handout/csapp.c:138
  403651:	c9                   	leaveq 
  403652:	c3                   	retq   

0000000000403653 <Getpgrp>:
Getpgrp():
/home/user102/proxylab-handout/csapp.c:140
  403653:	55                   	push   %rbp
  403654:	48 89 e5             	mov    %rsp,%rbp
/home/user102/proxylab-handout/csapp.c:141
  403657:	e8 84 e7 ff ff       	callq  401de0 <getpgrp@plt>
/home/user102/proxylab-handout/csapp.c:142
  40365c:	5d                   	pop    %rbp
  40365d:	c3                   	retq   

000000000040365e <Signal>:
Signal():
/home/user102/proxylab-handout/csapp.c:150
  40365e:	55                   	push   %rbp
  40365f:	48 89 e5             	mov    %rsp,%rbp
  403662:	48 81 ec 50 01 00 00 	sub    $0x150,%rsp
  403669:	89 bd bc fe ff ff    	mov    %edi,-0x144(%rbp)
  40366f:	48 89 b5 b0 fe ff ff 	mov    %rsi,-0x150(%rbp)
  403676:	64 48 8b 04 25 28 00 	mov    %fs:0x28,%rax
  40367d:	00 00 
  40367f:	48 89 45 f8          	mov    %rax,-0x8(%rbp)
  403683:	31 c0                	xor    %eax,%eax
/home/user102/proxylab-handout/csapp.c:153
  403685:	48 8b 85 b0 fe ff ff 	mov    -0x150(%rbp),%rax
  40368c:	48 89 85 c0 fe ff ff 	mov    %rax,-0x140(%rbp)
/home/user102/proxylab-handout/csapp.c:154
  403693:	48 8d 85 c0 fe ff ff 	lea    -0x140(%rbp),%rax
  40369a:	48 83 c0 08          	add    $0x8,%rax
  40369e:	48 89 c7             	mov    %rax,%rdi
  4036a1:	e8 ca e5 ff ff       	callq  401c70 <sigemptyset@plt>
/home/user102/proxylab-handout/csapp.c:155
  4036a6:	c7 85 48 ff ff ff 00 	movl   $0x10000000,-0xb8(%rbp)
  4036ad:	00 00 10 
/home/user102/proxylab-handout/csapp.c:157
  4036b0:	48 8d 95 60 ff ff ff 	lea    -0xa0(%rbp),%rdx
  4036b7:	48 8d 8d c0 fe ff ff 	lea    -0x140(%rbp),%rcx
  4036be:	8b 85 bc fe ff ff    	mov    -0x144(%rbp),%eax
  4036c4:	48 89 ce             	mov    %rcx,%rsi
  4036c7:	89 c7                	mov    %eax,%edi
  4036c9:	e8 b2 e3 ff ff       	callq  401a80 <sigaction@plt>
  4036ce:	85 c0                	test   %eax,%eax
  4036d0:	79 0a                	jns    4036dc <Signal+0x7e>
/home/user102/proxylab-handout/csapp.c:158
  4036d2:	bf 16 52 40 00       	mov    $0x405216,%edi
  4036d7:	e8 d1 fc ff ff       	callq  4033ad <unix_error>
/home/user102/proxylab-handout/csapp.c:159
  4036dc:	48 8b 85 60 ff ff ff 	mov    -0xa0(%rbp),%rax
/home/user102/proxylab-handout/csapp.c:160
  4036e3:	48 8b 4d f8          	mov    -0x8(%rbp),%rcx
  4036e7:	64 48 33 0c 25 28 00 	xor    %fs:0x28,%rcx
  4036ee:	00 00 
  4036f0:	74 05                	je     4036f7 <Signal+0x99>
  4036f2:	e8 09 e4 ff ff       	callq  401b00 <__stack_chk_fail@plt>
  4036f7:	c9                   	leaveq 
  4036f8:	c3                   	retq   

00000000004036f9 <Sigprocmask>:
Sigprocmask():
/home/user102/proxylab-handout/csapp.c:164
  4036f9:	55                   	push   %rbp
  4036fa:	48 89 e5             	mov    %rsp,%rbp
  4036fd:	48 83 ec 20          	sub    $0x20,%rsp
  403701:	89 7d fc             	mov    %edi,-0x4(%rbp)
  403704:	48 89 75 f0          	mov    %rsi,-0x10(%rbp)
  403708:	48 89 55 e8          	mov    %rdx,-0x18(%rbp)
/home/user102/proxylab-handout/csapp.c:165
  40370c:	48 8b 55 e8          	mov    -0x18(%rbp),%rdx
  403710:	48 8b 4d f0          	mov    -0x10(%rbp),%rcx
  403714:	8b 45 fc             	mov    -0x4(%rbp),%eax
  403717:	48 89 ce             	mov    %rcx,%rsi
  40371a:	89 c7                	mov    %eax,%edi
  40371c:	e8 9f e2 ff ff       	callq  4019c0 <sigprocmask@plt>
  403721:	85 c0                	test   %eax,%eax
  403723:	79 0b                	jns    403730 <Sigprocmask+0x37>
/home/user102/proxylab-handout/csapp.c:166
  403725:	bf 23 52 40 00       	mov    $0x405223,%edi
  40372a:	e8 7e fc ff ff       	callq  4033ad <unix_error>
/home/user102/proxylab-handout/csapp.c:167
  40372f:	90                   	nop
  403730:	90                   	nop
/home/user102/proxylab-handout/csapp.c:168
  403731:	c9                   	leaveq 
  403732:	c3                   	retq   

0000000000403733 <Sigemptyset>:
Sigemptyset():
/home/user102/proxylab-handout/csapp.c:171
  403733:	55                   	push   %rbp
  403734:	48 89 e5             	mov    %rsp,%rbp
  403737:	48 83 ec 10          	sub    $0x10,%rsp
  40373b:	48 89 7d f8          	mov    %rdi,-0x8(%rbp)
/home/user102/proxylab-handout/csapp.c:172
  40373f:	48 8b 45 f8          	mov    -0x8(%rbp),%rax
  403743:	48 89 c7             	mov    %rax,%rdi
  403746:	e8 25 e5 ff ff       	callq  401c70 <sigemptyset@plt>
  40374b:	85 c0                	test   %eax,%eax
  40374d:	79 0b                	jns    40375a <Sigemptyset+0x27>
/home/user102/proxylab-handout/csapp.c:173
  40374f:	bf 35 52 40 00       	mov    $0x405235,%edi
  403754:	e8 54 fc ff ff       	callq  4033ad <unix_error>
/home/user102/proxylab-handout/csapp.c:174
  403759:	90                   	nop
  40375a:	90                   	nop
/home/user102/proxylab-handout/csapp.c:175
  40375b:	c9                   	leaveq 
  40375c:	c3                   	retq   

000000000040375d <Sigfillset>:
Sigfillset():
/home/user102/proxylab-handout/csapp.c:178
  40375d:	55                   	push   %rbp
  40375e:	48 89 e5             	mov    %rsp,%rbp
  403761:	48 83 ec 10          	sub    $0x10,%rsp
  403765:	48 89 7d f8          	mov    %rdi,-0x8(%rbp)
/home/user102/proxylab-handout/csapp.c:179
  403769:	48 8b 45 f8          	mov    -0x8(%rbp),%rax
  40376d:	48 89 c7             	mov    %rax,%rdi
  403770:	e8 0b e5 ff ff       	callq  401c80 <sigfillset@plt>
  403775:	85 c0                	test   %eax,%eax
  403777:	79 0b                	jns    403784 <Sigfillset+0x27>
/home/user102/proxylab-handout/csapp.c:180
  403779:	bf 47 52 40 00       	mov    $0x405247,%edi
  40377e:	e8 2a fc ff ff       	callq  4033ad <unix_error>
/home/user102/proxylab-handout/csapp.c:181
  403783:	90                   	nop
  403784:	90                   	nop
/home/user102/proxylab-handout/csapp.c:182
  403785:	c9                   	leaveq 
  403786:	c3                   	retq   

0000000000403787 <Sigaddset>:
Sigaddset():
/home/user102/proxylab-handout/csapp.c:185
  403787:	55                   	push   %rbp
  403788:	48 89 e5             	mov    %rsp,%rbp
  40378b:	48 83 ec 10          	sub    $0x10,%rsp
  40378f:	48 89 7d f8          	mov    %rdi,-0x8(%rbp)
  403793:	89 75 f4             	mov    %esi,-0xc(%rbp)
/home/user102/proxylab-handout/csapp.c:186
  403796:	8b 55 f4             	mov    -0xc(%rbp),%edx
  403799:	48 8b 45 f8          	mov    -0x8(%rbp),%rax
  40379d:	89 d6                	mov    %edx,%esi
  40379f:	48 89 c7             	mov    %rax,%rdi
  4037a2:	e8 79 e7 ff ff       	callq  401f20 <sigaddset@plt>
  4037a7:	85 c0                	test   %eax,%eax
  4037a9:	79 0b                	jns    4037b6 <Sigaddset+0x2f>
/home/user102/proxylab-handout/csapp.c:187
  4037ab:	bf 58 52 40 00       	mov    $0x405258,%edi
  4037b0:	e8 f8 fb ff ff       	callq  4033ad <unix_error>
/home/user102/proxylab-handout/csapp.c:188
  4037b5:	90                   	nop
  4037b6:	90                   	nop
/home/user102/proxylab-handout/csapp.c:189
  4037b7:	c9                   	leaveq 
  4037b8:	c3                   	retq   

00000000004037b9 <Sigdelset>:
Sigdelset():
/home/user102/proxylab-handout/csapp.c:192
  4037b9:	55                   	push   %rbp
  4037ba:	48 89 e5             	mov    %rsp,%rbp
  4037bd:	48 83 ec 10          	sub    $0x10,%rsp
  4037c1:	48 89 7d f8          	mov    %rdi,-0x8(%rbp)
  4037c5:	89 75 f4             	mov    %esi,-0xc(%rbp)
/home/user102/proxylab-handout/csapp.c:193
  4037c8:	8b 55 f4             	mov    -0xc(%rbp),%edx
  4037cb:	48 8b 45 f8          	mov    -0x8(%rbp),%rax
  4037cf:	89 d6                	mov    %edx,%esi
  4037d1:	48 89 c7             	mov    %rax,%rdi
  4037d4:	e8 37 e6 ff ff       	callq  401e10 <sigdelset@plt>
  4037d9:	85 c0                	test   %eax,%eax
  4037db:	79 0b                	jns    4037e8 <Sigdelset+0x2f>
/home/user102/proxylab-handout/csapp.c:194
  4037dd:	bf 68 52 40 00       	mov    $0x405268,%edi
  4037e2:	e8 c6 fb ff ff       	callq  4033ad <unix_error>
/home/user102/proxylab-handout/csapp.c:195
  4037e7:	90                   	nop
  4037e8:	90                   	nop
/home/user102/proxylab-handout/csapp.c:196
  4037e9:	c9                   	leaveq 
  4037ea:	c3                   	retq   

00000000004037eb <Sigismember>:
Sigismember():
/home/user102/proxylab-handout/csapp.c:199
  4037eb:	55                   	push   %rbp
  4037ec:	48 89 e5             	mov    %rsp,%rbp
  4037ef:	48 83 ec 20          	sub    $0x20,%rsp
  4037f3:	48 89 7d e8          	mov    %rdi,-0x18(%rbp)
  4037f7:	89 75 e4             	mov    %esi,-0x1c(%rbp)
/home/user102/proxylab-handout/csapp.c:201
  4037fa:	8b 55 e4             	mov    -0x1c(%rbp),%edx
  4037fd:	48 8b 45 e8          	mov    -0x18(%rbp),%rax
  403801:	89 d6                	mov    %edx,%esi
  403803:	48 89 c7             	mov    %rax,%rdi
  403806:	e8 85 e6 ff ff       	callq  401e90 <sigismember@plt>
  40380b:	89 45 fc             	mov    %eax,-0x4(%rbp)
  40380e:	83 7d fc 00          	cmpl   $0x0,-0x4(%rbp)
  403812:	79 0a                	jns    40381e <Sigismember+0x33>
/home/user102/proxylab-handout/csapp.c:202
  403814:	bf 78 52 40 00       	mov    $0x405278,%edi
  403819:	e8 8f fb ff ff       	callq  4033ad <unix_error>
/home/user102/proxylab-handout/csapp.c:203
  40381e:	8b 45 fc             	mov    -0x4(%rbp),%eax
/home/user102/proxylab-handout/csapp.c:204
  403821:	c9                   	leaveq 
  403822:	c3                   	retq   

0000000000403823 <Sigsuspend>:
Sigsuspend():
/home/user102/proxylab-handout/csapp.c:207
  403823:	55                   	push   %rbp
  403824:	48 89 e5             	mov    %rsp,%rbp
  403827:	48 83 ec 20          	sub    $0x20,%rsp
  40382b:	48 89 7d e8          	mov    %rdi,-0x18(%rbp)
/home/user102/proxylab-handout/csapp.c:208
  40382f:	48 8b 45 e8          	mov    -0x18(%rbp),%rax
  403833:	48 89 c7             	mov    %rax,%rdi
  403836:	e8 05 e5 ff ff       	callq  401d40 <sigsuspend@plt>
  40383b:	89 45 fc             	mov    %eax,-0x4(%rbp)
/home/user102/proxylab-handout/csapp.c:209
  40383e:	e8 cd e1 ff ff       	callq  401a10 <__errno_location@plt>
  403843:	8b 00                	mov    (%rax),%eax
  403845:	83 f8 04             	cmp    $0x4,%eax
  403848:	74 0a                	je     403854 <Sigsuspend+0x31>
/home/user102/proxylab-handout/csapp.c:210
  40384a:	bf 8a 52 40 00       	mov    $0x40528a,%edi
  40384f:	e8 59 fb ff ff       	callq  4033ad <unix_error>
/home/user102/proxylab-handout/csapp.c:211
  403854:	8b 45 fc             	mov    -0x4(%rbp),%eax
/home/user102/proxylab-handout/csapp.c:212
  403857:	c9                   	leaveq 
  403858:	c3                   	retq   

0000000000403859 <sio_reverse>:
sio_reverse():
/home/user102/proxylab-handout/csapp.c:224
  403859:	55                   	push   %rbp
  40385a:	48 89 e5             	mov    %rsp,%rbp
  40385d:	48 83 ec 20          	sub    $0x20,%rsp
  403861:	48 89 7d e8          	mov    %rdi,-0x18(%rbp)
/home/user102/proxylab-handout/csapp.c:227
  403865:	c7 45 f4 00 00 00 00 	movl   $0x0,-0xc(%rbp)
  40386c:	48 8b 45 e8          	mov    -0x18(%rbp),%rax
  403870:	48 89 c7             	mov    %rax,%rdi
  403873:	e8 78 e2 ff ff       	callq  401af0 <strlen@plt>
  403878:	83 e8 01             	sub    $0x1,%eax
  40387b:	89 45 f8             	mov    %eax,-0x8(%rbp)
  40387e:	eb 4f                	jmp    4038cf <sio_reverse+0x76>
/home/user102/proxylab-handout/csapp.c:228 (discriminator 3)
  403880:	8b 45 f4             	mov    -0xc(%rbp),%eax
  403883:	48 63 d0             	movslq %eax,%rdx
  403886:	48 8b 45 e8          	mov    -0x18(%rbp),%rax
  40388a:	48 01 d0             	add    %rdx,%rax
  40388d:	0f b6 00             	movzbl (%rax),%eax
  403890:	0f be c0             	movsbl %al,%eax
  403893:	89 45 fc             	mov    %eax,-0x4(%rbp)
/home/user102/proxylab-handout/csapp.c:229 (discriminator 3)
  403896:	8b 45 f4             	mov    -0xc(%rbp),%eax
  403899:	48 63 d0             	movslq %eax,%rdx
  40389c:	48 8b 45 e8          	mov    -0x18(%rbp),%rax
  4038a0:	48 01 c2             	add    %rax,%rdx
  4038a3:	8b 45 f8             	mov    -0x8(%rbp),%eax
  4038a6:	48 63 c8             	movslq %eax,%rcx
  4038a9:	48 8b 45 e8          	mov    -0x18(%rbp),%rax
  4038ad:	48 01 c8             	add    %rcx,%rax
  4038b0:	0f b6 00             	movzbl (%rax),%eax
  4038b3:	88 02                	mov    %al,(%rdx)
/home/user102/proxylab-handout/csapp.c:230 (discriminator 3)
  4038b5:	8b 45 f8             	mov    -0x8(%rbp),%eax
  4038b8:	48 63 d0             	movslq %eax,%rdx
  4038bb:	48 8b 45 e8          	mov    -0x18(%rbp),%rax
  4038bf:	48 01 d0             	add    %rdx,%rax
  4038c2:	8b 55 fc             	mov    -0x4(%rbp),%edx
  4038c5:	88 10                	mov    %dl,(%rax)
/home/user102/proxylab-handout/csapp.c:227 (discriminator 3)
  4038c7:	83 45 f4 01          	addl   $0x1,-0xc(%rbp)
  4038cb:	83 6d f8 01          	subl   $0x1,-0x8(%rbp)
/home/user102/proxylab-handout/csapp.c:227 (discriminator 1)
  4038cf:	8b 45 f4             	mov    -0xc(%rbp),%eax
  4038d2:	3b 45 f8             	cmp    -0x8(%rbp),%eax
  4038d5:	7c a9                	jl     403880 <sio_reverse+0x27>
/home/user102/proxylab-handout/csapp.c:232
  4038d7:	90                   	nop
  4038d8:	c9                   	leaveq 
  4038d9:	c3                   	retq   

00000000004038da <sio_ltoa>:
sio_ltoa():
/home/user102/proxylab-handout/csapp.c:236
  4038da:	55                   	push   %rbp
  4038db:	48 89 e5             	mov    %rsp,%rbp
  4038de:	48 83 ec 30          	sub    $0x30,%rsp
  4038e2:	48 89 7d e8          	mov    %rdi,-0x18(%rbp)
  4038e6:	48 89 75 e0          	mov    %rsi,-0x20(%rbp)
  4038ea:	89 55 dc             	mov    %edx,-0x24(%rbp)
/home/user102/proxylab-handout/csapp.c:237
  4038ed:	c7 45 f8 00 00 00 00 	movl   $0x0,-0x8(%rbp)
/home/user102/proxylab-handout/csapp.c:240
  4038f4:	8b 45 f8             	mov    -0x8(%rbp),%eax
  4038f7:	8d 50 01             	lea    0x1(%rax),%edx
  4038fa:	89 55 f8             	mov    %edx,-0x8(%rbp)
  4038fd:	48 63 d0             	movslq %eax,%rdx
  403900:	48 8b 45 e0          	mov    -0x20(%rbp),%rax
  403904:	48 8d 0c 02          	lea    (%rdx,%rax,1),%rcx
  403908:	8b 45 dc             	mov    -0x24(%rbp),%eax
  40390b:	48 63 f0             	movslq %eax,%rsi
  40390e:	48 8b 45 e8          	mov    -0x18(%rbp),%rax
  403912:	48 99                	cqto   
  403914:	48 f7 fe             	idiv   %rsi
  403917:	48 89 d0             	mov    %rdx,%rax
  40391a:	89 45 fc             	mov    %eax,-0x4(%rbp)
  40391d:	83 7d fc 09          	cmpl   $0x9,-0x4(%rbp)
  403921:	7f 08                	jg     40392b <sio_ltoa+0x51>
/home/user102/proxylab-handout/csapp.c:240 (discriminator 1)
  403923:	8b 45 fc             	mov    -0x4(%rbp),%eax
  403926:	83 c0 30             	add    $0x30,%eax
  403929:	eb 06                	jmp    403931 <sio_ltoa+0x57>
/home/user102/proxylab-handout/csapp.c:240 (discriminator 2)
  40392b:	8b 45 fc             	mov    -0x4(%rbp),%eax
  40392e:	83 c0 57             	add    $0x57,%eax
/home/user102/proxylab-handout/csapp.c:240 (discriminator 4)
  403931:	88 01                	mov    %al,(%rcx)
/home/user102/proxylab-handout/csapp.c:241 (discriminator 4)
  403933:	8b 45 dc             	mov    -0x24(%rbp),%eax
  403936:	48 63 c8             	movslq %eax,%rcx
  403939:	48 8b 45 e8          	mov    -0x18(%rbp),%rax
  40393d:	48 99                	cqto   
  40393f:	48 f7 f9             	idiv   %rcx
  403942:	48 89 45 e8          	mov    %rax,-0x18(%rbp)
  403946:	48 83 7d e8 00       	cmpq   $0x0,-0x18(%rbp)
  40394b:	7f a7                	jg     4038f4 <sio_ltoa+0x1a>
/home/user102/proxylab-handout/csapp.c:242
  40394d:	8b 45 f8             	mov    -0x8(%rbp),%eax
  403950:	48 63 d0             	movslq %eax,%rdx
  403953:	48 8b 45 e0          	mov    -0x20(%rbp),%rax
  403957:	48 01 d0             	add    %rdx,%rax
  40395a:	c6 00 00             	movb   $0x0,(%rax)
/home/user102/proxylab-handout/csapp.c:243
  40395d:	48 8b 45 e0          	mov    -0x20(%rbp),%rax
  403961:	48 89 c7             	mov    %rax,%rdi
  403964:	e8 f0 fe ff ff       	callq  403859 <sio_reverse>
/home/user102/proxylab-handout/csapp.c:244
  403969:	90                   	nop
  40396a:	c9                   	leaveq 
  40396b:	c3                   	retq   

000000000040396c <sio_strlen>:
sio_strlen():
/home/user102/proxylab-handout/csapp.c:248
  40396c:	55                   	push   %rbp
  40396d:	48 89 e5             	mov    %rsp,%rbp
  403970:	48 89 7d e8          	mov    %rdi,-0x18(%rbp)
/home/user102/proxylab-handout/csapp.c:249
  403974:	c7 45 fc 00 00 00 00 	movl   $0x0,-0x4(%rbp)
/home/user102/proxylab-handout/csapp.c:251
  40397b:	eb 04                	jmp    403981 <sio_strlen+0x15>
/home/user102/proxylab-handout/csapp.c:252
  40397d:	83 45 fc 01          	addl   $0x1,-0x4(%rbp)
/home/user102/proxylab-handout/csapp.c:251
  403981:	8b 45 fc             	mov    -0x4(%rbp),%eax
  403984:	48 63 d0             	movslq %eax,%rdx
  403987:	48 8b 45 e8          	mov    -0x18(%rbp),%rax
  40398b:	48 01 d0             	add    %rdx,%rax
  40398e:	0f b6 00             	movzbl (%rax),%eax
  403991:	84 c0                	test   %al,%al
  403993:	75 e8                	jne    40397d <sio_strlen+0x11>
/home/user102/proxylab-handout/csapp.c:253
  403995:	8b 45 fc             	mov    -0x4(%rbp),%eax
  403998:	48 98                	cltq   
/home/user102/proxylab-handout/csapp.c:254
  40399a:	5d                   	pop    %rbp
  40399b:	c3                   	retq   

000000000040399c <sio_puts>:
sio_puts():
/home/user102/proxylab-handout/csapp.c:261
  40399c:	55                   	push   %rbp
  40399d:	48 89 e5             	mov    %rsp,%rbp
  4039a0:	48 83 ec 10          	sub    $0x10,%rsp
  4039a4:	48 89 7d f8          	mov    %rdi,-0x8(%rbp)
/home/user102/proxylab-handout/csapp.c:262
  4039a8:	48 8b 45 f8          	mov    -0x8(%rbp),%rax
  4039ac:	48 89 c7             	mov    %rax,%rdi
  4039af:	e8 b8 ff ff ff       	callq  40396c <sio_strlen>
  4039b4:	48 89 c2             	mov    %rax,%rdx
  4039b7:	48 8b 45 f8          	mov    -0x8(%rbp),%rax
  4039bb:	48 89 c6             	mov    %rax,%rsi
  4039be:	bf 01 00 00 00       	mov    $0x1,%edi
  4039c3:	e8 e8 e0 ff ff       	callq  401ab0 <write@plt>
/home/user102/proxylab-handout/csapp.c:263
  4039c8:	c9                   	leaveq 
  4039c9:	c3                   	retq   

00000000004039ca <sio_putl>:
sio_putl():
/home/user102/proxylab-handout/csapp.c:266
  4039ca:	55                   	push   %rbp
  4039cb:	48 89 e5             	mov    %rsp,%rbp
  4039ce:	48 81 ec a0 00 00 00 	sub    $0xa0,%rsp
  4039d5:	48 89 bd 68 ff ff ff 	mov    %rdi,-0x98(%rbp)
  4039dc:	64 48 8b 04 25 28 00 	mov    %fs:0x28,%rax
  4039e3:	00 00 
  4039e5:	48 89 45 f8          	mov    %rax,-0x8(%rbp)
  4039e9:	31 c0                	xor    %eax,%eax
/home/user102/proxylab-handout/csapp.c:269
  4039eb:	48 8d 8d 70 ff ff ff 	lea    -0x90(%rbp),%rcx
  4039f2:	48 8b 85 68 ff ff ff 	mov    -0x98(%rbp),%rax
  4039f9:	ba 0a 00 00 00       	mov    $0xa,%edx
  4039fe:	48 89 ce             	mov    %rcx,%rsi
  403a01:	48 89 c7             	mov    %rax,%rdi
  403a04:	e8 d1 fe ff ff       	callq  4038da <sio_ltoa>
/home/user102/proxylab-handout/csapp.c:270
  403a09:	48 8d 85 70 ff ff ff 	lea    -0x90(%rbp),%rax
  403a10:	48 89 c7             	mov    %rax,%rdi
  403a13:	e8 84 ff ff ff       	callq  40399c <sio_puts>
/home/user102/proxylab-handout/csapp.c:271
  403a18:	48 8b 55 f8          	mov    -0x8(%rbp),%rdx
  403a1c:	64 48 33 14 25 28 00 	xor    %fs:0x28,%rdx
  403a23:	00 00 
  403a25:	74 05                	je     403a2c <sio_putl+0x62>
  403a27:	e8 d4 e0 ff ff       	callq  401b00 <__stack_chk_fail@plt>
  403a2c:	c9                   	leaveq 
  403a2d:	c3                   	retq   

0000000000403a2e <sio_error>:
sio_error():
/home/user102/proxylab-handout/csapp.c:274
  403a2e:	55                   	push   %rbp
  403a2f:	48 89 e5             	mov    %rsp,%rbp
  403a32:	48 83 ec 10          	sub    $0x10,%rsp
  403a36:	48 89 7d f8          	mov    %rdi,-0x8(%rbp)
/home/user102/proxylab-handout/csapp.c:275
  403a3a:	48 8b 45 f8          	mov    -0x8(%rbp),%rax
  403a3e:	48 89 c7             	mov    %rax,%rdi
  403a41:	e8 56 ff ff ff       	callq  40399c <sio_puts>
/home/user102/proxylab-handout/csapp.c:276
  403a46:	bf 01 00 00 00       	mov    $0x1,%edi
  403a4b:	e8 f0 df ff ff       	callq  401a40 <_exit@plt>

0000000000403a50 <Sio_putl>:
Sio_putl():
/home/user102/proxylab-handout/csapp.c:284
  403a50:	55                   	push   %rbp
  403a51:	48 89 e5             	mov    %rsp,%rbp
  403a54:	48 83 ec 20          	sub    $0x20,%rsp
  403a58:	48 89 7d e8          	mov    %rdi,-0x18(%rbp)
/home/user102/proxylab-handout/csapp.c:287
  403a5c:	48 8b 45 e8          	mov    -0x18(%rbp),%rax
  403a60:	48 89 c7             	mov    %rax,%rdi
  403a63:	e8 62 ff ff ff       	callq  4039ca <sio_putl>
  403a68:	48 89 45 f8          	mov    %rax,-0x8(%rbp)
  403a6c:	48 83 7d f8 00       	cmpq   $0x0,-0x8(%rbp)
  403a71:	79 0a                	jns    403a7d <Sio_putl+0x2d>
/home/user102/proxylab-handout/csapp.c:288
  403a73:	bf 9b 52 40 00       	mov    $0x40529b,%edi
  403a78:	e8 b1 ff ff ff       	callq  403a2e <sio_error>
/home/user102/proxylab-handout/csapp.c:289
  403a7d:	48 8b 45 f8          	mov    -0x8(%rbp),%rax
/home/user102/proxylab-handout/csapp.c:290
  403a81:	c9                   	leaveq 
  403a82:	c3                   	retq   

0000000000403a83 <Sio_puts>:
Sio_puts():
/home/user102/proxylab-handout/csapp.c:293
  403a83:	55                   	push   %rbp
  403a84:	48 89 e5             	mov    %rsp,%rbp
  403a87:	48 83 ec 20          	sub    $0x20,%rsp
  403a8b:	48 89 7d e8          	mov    %rdi,-0x18(%rbp)
/home/user102/proxylab-handout/csapp.c:296
  403a8f:	48 8b 45 e8          	mov    -0x18(%rbp),%rax
  403a93:	48 89 c7             	mov    %rax,%rdi
  403a96:	e8 01 ff ff ff       	callq  40399c <sio_puts>
  403a9b:	48 89 45 f8          	mov    %rax,-0x8(%rbp)
  403a9f:	48 83 7d f8 00       	cmpq   $0x0,-0x8(%rbp)
  403aa4:	79 0a                	jns    403ab0 <Sio_puts+0x2d>
/home/user102/proxylab-handout/csapp.c:297
  403aa6:	bf aa 52 40 00       	mov    $0x4052aa,%edi
  403aab:	e8 7e ff ff ff       	callq  403a2e <sio_error>
/home/user102/proxylab-handout/csapp.c:298
  403ab0:	48 8b 45 f8          	mov    -0x8(%rbp),%rax
/home/user102/proxylab-handout/csapp.c:299
  403ab4:	c9                   	leaveq 
  403ab5:	c3                   	retq   

0000000000403ab6 <Sio_error>:
Sio_error():
/home/user102/proxylab-handout/csapp.c:302
  403ab6:	55                   	push   %rbp
  403ab7:	48 89 e5             	mov    %rsp,%rbp
  403aba:	48 83 ec 10          	sub    $0x10,%rsp
  403abe:	48 89 7d f8          	mov    %rdi,-0x8(%rbp)
/home/user102/proxylab-handout/csapp.c:303
  403ac2:	48 8b 45 f8          	mov    -0x8(%rbp),%rax
  403ac6:	48 89 c7             	mov    %rax,%rdi
  403ac9:	e8 60 ff ff ff       	callq  403a2e <sio_error>
/home/user102/proxylab-handout/csapp.c:304
  403ace:	90                   	nop
  403acf:	c9                   	leaveq 
  403ad0:	c3                   	retq   

0000000000403ad1 <Open>:
Open():
/home/user102/proxylab-handout/csapp.c:311
  403ad1:	55                   	push   %rbp
  403ad2:	48 89 e5             	mov    %rsp,%rbp
  403ad5:	48 83 ec 20          	sub    $0x20,%rsp
  403ad9:	48 89 7d e8          	mov    %rdi,-0x18(%rbp)
  403add:	89 75 e4             	mov    %esi,-0x1c(%rbp)
  403ae0:	89 55 e0             	mov    %edx,-0x20(%rbp)
/home/user102/proxylab-handout/csapp.c:314
  403ae3:	8b 55 e0             	mov    -0x20(%rbp),%edx
  403ae6:	8b 4d e4             	mov    -0x1c(%rbp),%ecx
  403ae9:	48 8b 45 e8          	mov    -0x18(%rbp),%rax
  403aed:	89 ce                	mov    %ecx,%esi
  403aef:	48 89 c7             	mov    %rax,%rdi
  403af2:	b8 00 00 00 00       	mov    $0x0,%eax
  403af7:	e8 f4 e2 ff ff       	callq  401df0 <open@plt>
  403afc:	89 45 fc             	mov    %eax,-0x4(%rbp)
  403aff:	83 7d fc 00          	cmpl   $0x0,-0x4(%rbp)
  403b03:	79 0a                	jns    403b0f <Open+0x3e>
/home/user102/proxylab-handout/csapp.c:315
  403b05:	bf b9 52 40 00       	mov    $0x4052b9,%edi
  403b0a:	e8 9e f8 ff ff       	callq  4033ad <unix_error>
/home/user102/proxylab-handout/csapp.c:316
  403b0f:	8b 45 fc             	mov    -0x4(%rbp),%eax
/home/user102/proxylab-handout/csapp.c:317
  403b12:	c9                   	leaveq 
  403b13:	c3                   	retq   

0000000000403b14 <Read>:
Read():
/home/user102/proxylab-handout/csapp.c:320
  403b14:	55                   	push   %rbp
  403b15:	48 89 e5             	mov    %rsp,%rbp
  403b18:	48 83 ec 30          	sub    $0x30,%rsp
  403b1c:	89 7d ec             	mov    %edi,-0x14(%rbp)
  403b1f:	48 89 75 e0          	mov    %rsi,-0x20(%rbp)
  403b23:	48 89 55 d8          	mov    %rdx,-0x28(%rbp)
/home/user102/proxylab-handout/csapp.c:323
  403b27:	48 8b 55 d8          	mov    -0x28(%rbp),%rdx
  403b2b:	48 8b 4d e0          	mov    -0x20(%rbp),%rcx
  403b2f:	8b 45 ec             	mov    -0x14(%rbp),%eax
  403b32:	48 89 ce             	mov    %rcx,%rsi
  403b35:	89 c7                	mov    %eax,%edi
  403b37:	e8 a4 e0 ff ff       	callq  401be0 <read@plt>
  403b3c:	48 89 45 f8          	mov    %rax,-0x8(%rbp)
  403b40:	48 83 7d f8 00       	cmpq   $0x0,-0x8(%rbp)
  403b45:	79 0a                	jns    403b51 <Read+0x3d>
/home/user102/proxylab-handout/csapp.c:324
  403b47:	bf c4 52 40 00       	mov    $0x4052c4,%edi
  403b4c:	e8 5c f8 ff ff       	callq  4033ad <unix_error>
/home/user102/proxylab-handout/csapp.c:325
  403b51:	48 8b 45 f8          	mov    -0x8(%rbp),%rax
/home/user102/proxylab-handout/csapp.c:326
  403b55:	c9                   	leaveq 
  403b56:	c3                   	retq   

0000000000403b57 <Write>:
Write():
/home/user102/proxylab-handout/csapp.c:329
  403b57:	55                   	push   %rbp
  403b58:	48 89 e5             	mov    %rsp,%rbp
  403b5b:	48 83 ec 30          	sub    $0x30,%rsp
  403b5f:	89 7d ec             	mov    %edi,-0x14(%rbp)
  403b62:	48 89 75 e0          	mov    %rsi,-0x20(%rbp)
  403b66:	48 89 55 d8          	mov    %rdx,-0x28(%rbp)
/home/user102/proxylab-handout/csapp.c:332
  403b6a:	48 8b 55 d8          	mov    -0x28(%rbp),%rdx
  403b6e:	48 8b 4d e0          	mov    -0x20(%rbp),%rcx
  403b72:	8b 45 ec             	mov    -0x14(%rbp),%eax
  403b75:	48 89 ce             	mov    %rcx,%rsi
  403b78:	89 c7                	mov    %eax,%edi
  403b7a:	e8 31 df ff ff       	callq  401ab0 <write@plt>
  403b7f:	48 89 45 f8          	mov    %rax,-0x8(%rbp)
  403b83:	48 83 7d f8 00       	cmpq   $0x0,-0x8(%rbp)
  403b88:	79 0a                	jns    403b94 <Write+0x3d>
/home/user102/proxylab-handout/csapp.c:333
  403b8a:	bf cf 52 40 00       	mov    $0x4052cf,%edi
  403b8f:	e8 19 f8 ff ff       	callq  4033ad <unix_error>
/home/user102/proxylab-handout/csapp.c:334
  403b94:	48 8b 45 f8          	mov    -0x8(%rbp),%rax
/home/user102/proxylab-handout/csapp.c:335
  403b98:	c9                   	leaveq 
  403b99:	c3                   	retq   

0000000000403b9a <Lseek>:
Lseek():
/home/user102/proxylab-handout/csapp.c:338
  403b9a:	55                   	push   %rbp
  403b9b:	48 89 e5             	mov    %rsp,%rbp
  403b9e:	48 83 ec 20          	sub    $0x20,%rsp
  403ba2:	89 7d ec             	mov    %edi,-0x14(%rbp)
  403ba5:	48 89 75 e0          	mov    %rsi,-0x20(%rbp)
  403ba9:	89 55 e8             	mov    %edx,-0x18(%rbp)
/home/user102/proxylab-handout/csapp.c:341
  403bac:	8b 55 e8             	mov    -0x18(%rbp),%edx
  403baf:	48 8b 4d e0          	mov    -0x20(%rbp),%rcx
  403bb3:	8b 45 ec             	mov    -0x14(%rbp),%eax
  403bb6:	48 89 ce             	mov    %rcx,%rsi
  403bb9:	89 c7                	mov    %eax,%edi
  403bbb:	e8 a0 df ff ff       	callq  401b60 <lseek@plt>
  403bc0:	48 89 45 f8          	mov    %rax,-0x8(%rbp)
  403bc4:	48 83 7d f8 00       	cmpq   $0x0,-0x8(%rbp)
  403bc9:	79 0a                	jns    403bd5 <Lseek+0x3b>
/home/user102/proxylab-handout/csapp.c:342
  403bcb:	bf db 52 40 00       	mov    $0x4052db,%edi
  403bd0:	e8 d8 f7 ff ff       	callq  4033ad <unix_error>
/home/user102/proxylab-handout/csapp.c:343
  403bd5:	48 8b 45 f8          	mov    -0x8(%rbp),%rax
/home/user102/proxylab-handout/csapp.c:344
  403bd9:	c9                   	leaveq 
  403bda:	c3                   	retq   

0000000000403bdb <Close>:
Close():
/home/user102/proxylab-handout/csapp.c:347
  403bdb:	55                   	push   %rbp
  403bdc:	48 89 e5             	mov    %rsp,%rbp
  403bdf:	48 83 ec 20          	sub    $0x20,%rsp
  403be3:	89 7d ec             	mov    %edi,-0x14(%rbp)
/home/user102/proxylab-handout/csapp.c:350
  403be6:	8b 45 ec             	mov    -0x14(%rbp),%eax
  403be9:	89 c7                	mov    %eax,%edi
  403beb:	e8 b0 df ff ff       	callq  401ba0 <close@plt>
  403bf0:	89 45 fc             	mov    %eax,-0x4(%rbp)
  403bf3:	83 7d fc 00          	cmpl   $0x0,-0x4(%rbp)
  403bf7:	79 0a                	jns    403c03 <Close+0x28>
/home/user102/proxylab-handout/csapp.c:351
  403bf9:	bf e7 52 40 00       	mov    $0x4052e7,%edi
  403bfe:	e8 aa f7 ff ff       	callq  4033ad <unix_error>
/home/user102/proxylab-handout/csapp.c:352
  403c03:	90                   	nop
  403c04:	c9                   	leaveq 
  403c05:	c3                   	retq   

0000000000403c06 <Select>:
Select():
/home/user102/proxylab-handout/csapp.c:356
  403c06:	55                   	push   %rbp
  403c07:	48 89 e5             	mov    %rsp,%rbp
  403c0a:	48 83 ec 40          	sub    $0x40,%rsp
  403c0e:	89 7d ec             	mov    %edi,-0x14(%rbp)
  403c11:	48 89 75 e0          	mov    %rsi,-0x20(%rbp)
  403c15:	48 89 55 d8          	mov    %rdx,-0x28(%rbp)
  403c19:	48 89 4d d0          	mov    %rcx,-0x30(%rbp)
  403c1d:	4c 89 45 c8          	mov    %r8,-0x38(%rbp)
/home/user102/proxylab-handout/csapp.c:359
  403c21:	48 8b 7d c8          	mov    -0x38(%rbp),%rdi
  403c25:	48 8b 4d d0          	mov    -0x30(%rbp),%rcx
  403c29:	48 8b 55 d8          	mov    -0x28(%rbp),%rdx
  403c2d:	48 8b 75 e0          	mov    -0x20(%rbp),%rsi
  403c31:	8b 45 ec             	mov    -0x14(%rbp),%eax
  403c34:	49 89 f8             	mov    %rdi,%r8
  403c37:	89 c7                	mov    %eax,%edi
  403c39:	e8 82 e0 ff ff       	callq  401cc0 <select@plt>
  403c3e:	89 45 fc             	mov    %eax,-0x4(%rbp)
  403c41:	83 7d fc 00          	cmpl   $0x0,-0x4(%rbp)
  403c45:	79 0a                	jns    403c51 <Select+0x4b>
/home/user102/proxylab-handout/csapp.c:360
  403c47:	bf f3 52 40 00       	mov    $0x4052f3,%edi
  403c4c:	e8 5c f7 ff ff       	callq  4033ad <unix_error>
/home/user102/proxylab-handout/csapp.c:361
  403c51:	8b 45 fc             	mov    -0x4(%rbp),%eax
/home/user102/proxylab-handout/csapp.c:362
  403c54:	c9                   	leaveq 
  403c55:	c3                   	retq   

0000000000403c56 <Dup2>:
Dup2():
/home/user102/proxylab-handout/csapp.c:365
  403c56:	55                   	push   %rbp
  403c57:	48 89 e5             	mov    %rsp,%rbp
  403c5a:	48 83 ec 20          	sub    $0x20,%rsp
  403c5e:	89 7d ec             	mov    %edi,-0x14(%rbp)
  403c61:	89 75 e8             	mov    %esi,-0x18(%rbp)
/home/user102/proxylab-handout/csapp.c:368
  403c64:	8b 55 e8             	mov    -0x18(%rbp),%edx
  403c67:	8b 45 ec             	mov    -0x14(%rbp),%eax
  403c6a:	89 d6                	mov    %edx,%esi
  403c6c:	89 c7                	mov    %eax,%edi
  403c6e:	e8 bd de ff ff       	callq  401b30 <dup2@plt>
  403c73:	89 45 fc             	mov    %eax,-0x4(%rbp)
  403c76:	83 7d fc 00          	cmpl   $0x0,-0x4(%rbp)
  403c7a:	79 0a                	jns    403c86 <Dup2+0x30>
/home/user102/proxylab-handout/csapp.c:369
  403c7c:	bf 00 53 40 00       	mov    $0x405300,%edi
  403c81:	e8 27 f7 ff ff       	callq  4033ad <unix_error>
/home/user102/proxylab-handout/csapp.c:370
  403c86:	8b 45 fc             	mov    -0x4(%rbp),%eax
/home/user102/proxylab-handout/csapp.c:371
  403c89:	c9                   	leaveq 
  403c8a:	c3                   	retq   

0000000000403c8b <Stat>:
Stat():
/home/user102/proxylab-handout/csapp.c:374
  403c8b:	55                   	push   %rbp
  403c8c:	48 89 e5             	mov    %rsp,%rbp
  403c8f:	48 83 ec 10          	sub    $0x10,%rsp
  403c93:	48 89 7d f8          	mov    %rdi,-0x8(%rbp)
  403c97:	48 89 75 f0          	mov    %rsi,-0x10(%rbp)
/home/user102/proxylab-handout/csapp.c:375
  403c9b:	48 8b 55 f0          	mov    -0x10(%rbp),%rdx
  403c9f:	48 8b 45 f8          	mov    -0x8(%rbp),%rax
  403ca3:	48 89 d6             	mov    %rdx,%rsi
  403ca6:	48 89 c7             	mov    %rax,%rdi
  403ca9:	e8 22 12 00 00       	callq  404ed0 <__stat>
  403cae:	85 c0                	test   %eax,%eax
  403cb0:	79 0a                	jns    403cbc <Stat+0x31>
/home/user102/proxylab-handout/csapp.c:376
  403cb2:	bf 0b 53 40 00       	mov    $0x40530b,%edi
  403cb7:	e8 f1 f6 ff ff       	callq  4033ad <unix_error>
/home/user102/proxylab-handout/csapp.c:377
  403cbc:	90                   	nop
  403cbd:	c9                   	leaveq 
  403cbe:	c3                   	retq   

0000000000403cbf <Fstat>:
Fstat():
/home/user102/proxylab-handout/csapp.c:380
  403cbf:	55                   	push   %rbp
  403cc0:	48 89 e5             	mov    %rsp,%rbp
  403cc3:	48 83 ec 10          	sub    $0x10,%rsp
  403cc7:	89 7d fc             	mov    %edi,-0x4(%rbp)
  403cca:	48 89 75 f0          	mov    %rsi,-0x10(%rbp)
/home/user102/proxylab-handout/csapp.c:381
  403cce:	48 8b 55 f0          	mov    -0x10(%rbp),%rdx
  403cd2:	8b 45 fc             	mov    -0x4(%rbp),%eax
  403cd5:	48 89 d6             	mov    %rdx,%rsi
  403cd8:	89 c7                	mov    %eax,%edi
  403cda:	e8 01 12 00 00       	callq  404ee0 <__fstat>
  403cdf:	85 c0                	test   %eax,%eax
  403ce1:	79 0a                	jns    403ced <Fstat+0x2e>
/home/user102/proxylab-handout/csapp.c:382
  403ce3:	bf 16 53 40 00       	mov    $0x405316,%edi
  403ce8:	e8 c0 f6 ff ff       	callq  4033ad <unix_error>
/home/user102/proxylab-handout/csapp.c:383
  403ced:	90                   	nop
  403cee:	c9                   	leaveq 
  403cef:	c3                   	retq   

0000000000403cf0 <Opendir>:
Opendir():
/home/user102/proxylab-handout/csapp.c:390
  403cf0:	55                   	push   %rbp
  403cf1:	48 89 e5             	mov    %rsp,%rbp
  403cf4:	48 83 ec 20          	sub    $0x20,%rsp
  403cf8:	48 89 7d e8          	mov    %rdi,-0x18(%rbp)
/home/user102/proxylab-handout/csapp.c:391
  403cfc:	48 8b 45 e8          	mov    -0x18(%rbp),%rax
  403d00:	48 89 c7             	mov    %rax,%rdi
  403d03:	e8 d8 dd ff ff       	callq  401ae0 <opendir@plt>
  403d08:	48 89 45 f8          	mov    %rax,-0x8(%rbp)
/home/user102/proxylab-handout/csapp.c:393
  403d0c:	48 83 7d f8 00       	cmpq   $0x0,-0x8(%rbp)
  403d11:	75 0a                	jne    403d1d <Opendir+0x2d>
/home/user102/proxylab-handout/csapp.c:394
  403d13:	bf 22 53 40 00       	mov    $0x405322,%edi
  403d18:	e8 90 f6 ff ff       	callq  4033ad <unix_error>
/home/user102/proxylab-handout/csapp.c:395
  403d1d:	48 8b 45 f8          	mov    -0x8(%rbp),%rax
/home/user102/proxylab-handout/csapp.c:396
  403d21:	c9                   	leaveq 
  403d22:	c3                   	retq   

0000000000403d23 <Readdir>:
Readdir():
/home/user102/proxylab-handout/csapp.c:399
  403d23:	55                   	push   %rbp
  403d24:	48 89 e5             	mov    %rsp,%rbp
  403d27:	48 83 ec 20          	sub    $0x20,%rsp
  403d2b:	48 89 7d e8          	mov    %rdi,-0x18(%rbp)
/home/user102/proxylab-handout/csapp.c:402
  403d2f:	e8 dc dc ff ff       	callq  401a10 <__errno_location@plt>
  403d34:	c7 00 00 00 00 00    	movl   $0x0,(%rax)
/home/user102/proxylab-handout/csapp.c:403
  403d3a:	48 8b 45 e8          	mov    -0x18(%rbp),%rax
  403d3e:	48 89 c7             	mov    %rax,%rdi
  403d41:	e8 9a df ff ff       	callq  401ce0 <readdir@plt>
  403d46:	48 89 45 f8          	mov    %rax,-0x8(%rbp)
/home/user102/proxylab-handout/csapp.c:404
  403d4a:	48 83 7d f8 00       	cmpq   $0x0,-0x8(%rbp)
  403d4f:	75 15                	jne    403d66 <Readdir+0x43>
/home/user102/proxylab-handout/csapp.c:404 (discriminator 1)
  403d51:	e8 ba dc ff ff       	callq  401a10 <__errno_location@plt>
  403d56:	8b 00                	mov    (%rax),%eax
  403d58:	85 c0                	test   %eax,%eax
  403d5a:	74 0a                	je     403d66 <Readdir+0x43>
/home/user102/proxylab-handout/csapp.c:405
  403d5c:	bf 30 53 40 00       	mov    $0x405330,%edi
  403d61:	e8 47 f6 ff ff       	callq  4033ad <unix_error>
/home/user102/proxylab-handout/csapp.c:406
  403d66:	48 8b 45 f8          	mov    -0x8(%rbp),%rax
/home/user102/proxylab-handout/csapp.c:407
  403d6a:	c9                   	leaveq 
  403d6b:	c3                   	retq   

0000000000403d6c <Closedir>:
Closedir():
/home/user102/proxylab-handout/csapp.c:410
  403d6c:	55                   	push   %rbp
  403d6d:	48 89 e5             	mov    %rsp,%rbp
  403d70:	48 83 ec 20          	sub    $0x20,%rsp
  403d74:	48 89 7d e8          	mov    %rdi,-0x18(%rbp)
/home/user102/proxylab-handout/csapp.c:413
  403d78:	48 8b 45 e8          	mov    -0x18(%rbp),%rax
  403d7c:	48 89 c7             	mov    %rax,%rdi
  403d7f:	e8 3c de ff ff       	callq  401bc0 <closedir@plt>
  403d84:	89 45 fc             	mov    %eax,-0x4(%rbp)
  403d87:	83 7d fc 00          	cmpl   $0x0,-0x4(%rbp)
  403d8b:	79 0a                	jns    403d97 <Closedir+0x2b>
/home/user102/proxylab-handout/csapp.c:414
  403d8d:	bf 3e 53 40 00       	mov    $0x40533e,%edi
  403d92:	e8 16 f6 ff ff       	callq  4033ad <unix_error>
/home/user102/proxylab-handout/csapp.c:415
  403d97:	8b 45 fc             	mov    -0x4(%rbp),%eax
/home/user102/proxylab-handout/csapp.c:416
  403d9a:	c9                   	leaveq 
  403d9b:	c3                   	retq   

0000000000403d9c <Mmap>:
Mmap():
/home/user102/proxylab-handout/csapp.c:422
  403d9c:	55                   	push   %rbp
  403d9d:	48 89 e5             	mov    %rsp,%rbp
  403da0:	48 83 ec 40          	sub    $0x40,%rsp
  403da4:	48 89 7d e8          	mov    %rdi,-0x18(%rbp)
  403da8:	48 89 75 e0          	mov    %rsi,-0x20(%rbp)
  403dac:	89 55 dc             	mov    %edx,-0x24(%rbp)
  403daf:	89 4d d8             	mov    %ecx,-0x28(%rbp)
  403db2:	44 89 45 d4          	mov    %r8d,-0x2c(%rbp)
  403db6:	4c 89 4d c8          	mov    %r9,-0x38(%rbp)
/home/user102/proxylab-handout/csapp.c:425
  403dba:	4c 8b 45 c8          	mov    -0x38(%rbp),%r8
  403dbe:	8b 7d d4             	mov    -0x2c(%rbp),%edi
  403dc1:	8b 4d d8             	mov    -0x28(%rbp),%ecx
  403dc4:	8b 55 dc             	mov    -0x24(%rbp),%edx
  403dc7:	48 8b 75 e0          	mov    -0x20(%rbp),%rsi
  403dcb:	48 8b 45 e8          	mov    -0x18(%rbp),%rax
  403dcf:	4d 89 c1             	mov    %r8,%r9
  403dd2:	41 89 f8             	mov    %edi,%r8d
  403dd5:	48 89 c7             	mov    %rax,%rdi
  403dd8:	e8 33 dd ff ff       	callq  401b10 <mmap@plt>
  403ddd:	48 89 45 f8          	mov    %rax,-0x8(%rbp)
  403de1:	48 83 7d f8 ff       	cmpq   $0xffffffffffffffff,-0x8(%rbp)
  403de6:	75 0a                	jne    403df2 <Mmap+0x56>
/home/user102/proxylab-handout/csapp.c:426
  403de8:	bf 4d 53 40 00       	mov    $0x40534d,%edi
  403ded:	e8 bb f5 ff ff       	callq  4033ad <unix_error>
/home/user102/proxylab-handout/csapp.c:427
  403df2:	48 8b 45 f8          	mov    -0x8(%rbp),%rax
/home/user102/proxylab-handout/csapp.c:428
  403df6:	c9                   	leaveq 
  403df7:	c3                   	retq   

0000000000403df8 <Munmap>:
Munmap():
/home/user102/proxylab-handout/csapp.c:431
  403df8:	55                   	push   %rbp
  403df9:	48 89 e5             	mov    %rsp,%rbp
  403dfc:	48 83 ec 10          	sub    $0x10,%rsp
  403e00:	48 89 7d f8          	mov    %rdi,-0x8(%rbp)
  403e04:	48 89 75 f0          	mov    %rsi,-0x10(%rbp)
/home/user102/proxylab-handout/csapp.c:432
  403e08:	48 8b 55 f0          	mov    -0x10(%rbp),%rdx
  403e0c:	48 8b 45 f8          	mov    -0x8(%rbp),%rax
  403e10:	48 89 d6             	mov    %rdx,%rsi
  403e13:	48 89 c7             	mov    %rax,%rdi
  403e16:	e8 65 df ff ff       	callq  401d80 <munmap@plt>
  403e1b:	85 c0                	test   %eax,%eax
  403e1d:	79 0a                	jns    403e29 <Munmap+0x31>
/home/user102/proxylab-handout/csapp.c:433
  403e1f:	bf 58 53 40 00       	mov    $0x405358,%edi
  403e24:	e8 84 f5 ff ff       	callq  4033ad <unix_error>
/home/user102/proxylab-handout/csapp.c:434
  403e29:	90                   	nop
  403e2a:	c9                   	leaveq 
  403e2b:	c3                   	retq   

0000000000403e2c <Malloc>:
Malloc():
/home/user102/proxylab-handout/csapp.c:441
  403e2c:	55                   	push   %rbp
  403e2d:	48 89 e5             	mov    %rsp,%rbp
  403e30:	48 83 ec 20          	sub    $0x20,%rsp
  403e34:	48 89 7d e8          	mov    %rdi,-0x18(%rbp)
/home/user102/proxylab-handout/csapp.c:444
  403e38:	48 8b 45 e8          	mov    -0x18(%rbp),%rax
  403e3c:	48 89 c7             	mov    %rax,%rdi
  403e3f:	e8 cc de ff ff       	callq  401d10 <malloc@plt>
  403e44:	48 89 45 f8          	mov    %rax,-0x8(%rbp)
  403e48:	48 83 7d f8 00       	cmpq   $0x0,-0x8(%rbp)
  403e4d:	75 0a                	jne    403e59 <Malloc+0x2d>
/home/user102/proxylab-handout/csapp.c:445
  403e4f:	bf 65 53 40 00       	mov    $0x405365,%edi
  403e54:	e8 54 f5 ff ff       	callq  4033ad <unix_error>
/home/user102/proxylab-handout/csapp.c:446
  403e59:	48 8b 45 f8          	mov    -0x8(%rbp),%rax
/home/user102/proxylab-handout/csapp.c:447
  403e5d:	c9                   	leaveq 
  403e5e:	c3                   	retq   

0000000000403e5f <Realloc>:
Realloc():
/home/user102/proxylab-handout/csapp.c:450
  403e5f:	55                   	push   %rbp
  403e60:	48 89 e5             	mov    %rsp,%rbp
  403e63:	48 83 ec 20          	sub    $0x20,%rsp
  403e67:	48 89 7d e8          	mov    %rdi,-0x18(%rbp)
  403e6b:	48 89 75 e0          	mov    %rsi,-0x20(%rbp)
/home/user102/proxylab-handout/csapp.c:453
  403e6f:	48 8b 55 e0          	mov    -0x20(%rbp),%rdx
  403e73:	48 8b 45 e8          	mov    -0x18(%rbp),%rax
  403e77:	48 89 d6             	mov    %rdx,%rsi
  403e7a:	48 89 c7             	mov    %rax,%rdi
  403e7d:	e8 de de ff ff       	callq  401d60 <realloc@plt>
  403e82:	48 89 45 f8          	mov    %rax,-0x8(%rbp)
  403e86:	48 83 7d f8 00       	cmpq   $0x0,-0x8(%rbp)
  403e8b:	75 0a                	jne    403e97 <Realloc+0x38>
/home/user102/proxylab-handout/csapp.c:454
  403e8d:	bf 72 53 40 00       	mov    $0x405372,%edi
  403e92:	e8 16 f5 ff ff       	callq  4033ad <unix_error>
/home/user102/proxylab-handout/csapp.c:455
  403e97:	48 8b 45 f8          	mov    -0x8(%rbp),%rax
/home/user102/proxylab-handout/csapp.c:456
  403e9b:	c9                   	leaveq 
  403e9c:	c3                   	retq   

0000000000403e9d <Calloc>:
Calloc():
/home/user102/proxylab-handout/csapp.c:459
  403e9d:	55                   	push   %rbp
  403e9e:	48 89 e5             	mov    %rsp,%rbp
  403ea1:	48 83 ec 20          	sub    $0x20,%rsp
  403ea5:	48 89 7d e8          	mov    %rdi,-0x18(%rbp)
  403ea9:	48 89 75 e0          	mov    %rsi,-0x20(%rbp)
/home/user102/proxylab-handout/csapp.c:462
  403ead:	48 8b 55 e0          	mov    -0x20(%rbp),%rdx
  403eb1:	48 8b 45 e8          	mov    -0x18(%rbp),%rax
  403eb5:	48 89 d6             	mov    %rdx,%rsi
  403eb8:	48 89 c7             	mov    %rax,%rdi
  403ebb:	e8 60 dd ff ff       	callq  401c20 <calloc@plt>
  403ec0:	48 89 45 f8          	mov    %rax,-0x8(%rbp)
  403ec4:	48 83 7d f8 00       	cmpq   $0x0,-0x8(%rbp)
  403ec9:	75 0a                	jne    403ed5 <Calloc+0x38>
/home/user102/proxylab-handout/csapp.c:463
  403ecb:	bf 80 53 40 00       	mov    $0x405380,%edi
  403ed0:	e8 d8 f4 ff ff       	callq  4033ad <unix_error>
/home/user102/proxylab-handout/csapp.c:464
  403ed5:	48 8b 45 f8          	mov    -0x8(%rbp),%rax
/home/user102/proxylab-handout/csapp.c:465
  403ed9:	c9                   	leaveq 
  403eda:	c3                   	retq   

0000000000403edb <Free>:
Free():
/home/user102/proxylab-handout/csapp.c:468
  403edb:	55                   	push   %rbp
  403edc:	48 89 e5             	mov    %rsp,%rbp
  403edf:	48 83 ec 10          	sub    $0x10,%rsp
  403ee3:	48 89 7d f8          	mov    %rdi,-0x8(%rbp)
/home/user102/proxylab-handout/csapp.c:469
  403ee7:	48 8b 45 f8          	mov    -0x8(%rbp),%rax
  403eeb:	48 89 c7             	mov    %rax,%rdi
  403eee:	e8 dd da ff ff       	callq  4019d0 <free@plt>
/home/user102/proxylab-handout/csapp.c:470
  403ef3:	90                   	nop
  403ef4:	c9                   	leaveq 
  403ef5:	c3                   	retq   

0000000000403ef6 <Fclose>:
Fclose():
/home/user102/proxylab-handout/csapp.c:476
  403ef6:	55                   	push   %rbp
  403ef7:	48 89 e5             	mov    %rsp,%rbp
  403efa:	48 83 ec 10          	sub    $0x10,%rsp
  403efe:	48 89 7d f8          	mov    %rdi,-0x8(%rbp)
/home/user102/proxylab-handout/csapp.c:477
  403f02:	48 8b 45 f8          	mov    -0x8(%rbp),%rax
  403f06:	48 89 c7             	mov    %rax,%rdi
  403f09:	e8 c2 db ff ff       	callq  401ad0 <fclose@plt>
  403f0e:	85 c0                	test   %eax,%eax
  403f10:	74 0a                	je     403f1c <Fclose+0x26>
/home/user102/proxylab-handout/csapp.c:478
  403f12:	bf 8d 53 40 00       	mov    $0x40538d,%edi
  403f17:	e8 91 f4 ff ff       	callq  4033ad <unix_error>
/home/user102/proxylab-handout/csapp.c:479
  403f1c:	90                   	nop
  403f1d:	c9                   	leaveq 
  403f1e:	c3                   	retq   

0000000000403f1f <Fdopen>:
Fdopen():
/home/user102/proxylab-handout/csapp.c:482
  403f1f:	55                   	push   %rbp
  403f20:	48 89 e5             	mov    %rsp,%rbp
  403f23:	48 83 ec 20          	sub    $0x20,%rsp
  403f27:	89 7d ec             	mov    %edi,-0x14(%rbp)
  403f2a:	48 89 75 e0          	mov    %rsi,-0x20(%rbp)
/home/user102/proxylab-handout/csapp.c:485
  403f2e:	48 8b 55 e0          	mov    -0x20(%rbp),%rdx
  403f32:	8b 45 ec             	mov    -0x14(%rbp),%eax
  403f35:	48 89 d6             	mov    %rdx,%rsi
  403f38:	89 c7                	mov    %eax,%edi
  403f3a:	e8 31 de ff ff       	callq  401d70 <fdopen@plt>
  403f3f:	48 89 45 f8          	mov    %rax,-0x8(%rbp)
  403f43:	48 83 7d f8 00       	cmpq   $0x0,-0x8(%rbp)
  403f48:	75 0a                	jne    403f54 <Fdopen+0x35>
/home/user102/proxylab-handout/csapp.c:486
  403f4a:	bf 9a 53 40 00       	mov    $0x40539a,%edi
  403f4f:	e8 59 f4 ff ff       	callq  4033ad <unix_error>
/home/user102/proxylab-handout/csapp.c:488
  403f54:	48 8b 45 f8          	mov    -0x8(%rbp),%rax
/home/user102/proxylab-handout/csapp.c:489
  403f58:	c9                   	leaveq 
  403f59:	c3                   	retq   

0000000000403f5a <Fgets>:
Fgets():
/home/user102/proxylab-handout/csapp.c:492
  403f5a:	55                   	push   %rbp
  403f5b:	48 89 e5             	mov    %rsp,%rbp
  403f5e:	48 83 ec 30          	sub    $0x30,%rsp
  403f62:	48 89 7d e8          	mov    %rdi,-0x18(%rbp)
  403f66:	89 75 e4             	mov    %esi,-0x1c(%rbp)
  403f69:	48 89 55 d8          	mov    %rdx,-0x28(%rbp)
/home/user102/proxylab-handout/csapp.c:495
  403f6d:	48 8b 55 d8          	mov    -0x28(%rbp),%rdx
  403f71:	8b 4d e4             	mov    -0x1c(%rbp),%ecx
  403f74:	48 8b 45 e8          	mov    -0x18(%rbp),%rax
  403f78:	89 ce                	mov    %ecx,%esi
  403f7a:	48 89 c7             	mov    %rax,%rdi
  403f7d:	e8 7e dc ff ff       	callq  401c00 <fgets@plt>
  403f82:	48 89 45 f8          	mov    %rax,-0x8(%rbp)
  403f86:	48 83 7d f8 00       	cmpq   $0x0,-0x8(%rbp)
  403f8b:	75 1a                	jne    403fa7 <Fgets+0x4d>
/home/user102/proxylab-handout/csapp.c:495 (discriminator 1)
  403f8d:	48 8b 45 d8          	mov    -0x28(%rbp),%rax
  403f91:	48 89 c7             	mov    %rax,%rdi
  403f94:	e8 c7 da ff ff       	callq  401a60 <ferror@plt>
  403f99:	85 c0                	test   %eax,%eax
  403f9b:	74 0a                	je     403fa7 <Fgets+0x4d>
/home/user102/proxylab-handout/csapp.c:496
  403f9d:	bf a7 53 40 00       	mov    $0x4053a7,%edi
  403fa2:	e8 d0 f4 ff ff       	callq  403477 <app_error>
/home/user102/proxylab-handout/csapp.c:498
  403fa7:	48 8b 45 f8          	mov    -0x8(%rbp),%rax
/home/user102/proxylab-handout/csapp.c:499
  403fab:	c9                   	leaveq 
  403fac:	c3                   	retq   

0000000000403fad <Fopen>:
Fopen():
/home/user102/proxylab-handout/csapp.c:502
  403fad:	55                   	push   %rbp
  403fae:	48 89 e5             	mov    %rsp,%rbp
  403fb1:	48 83 ec 20          	sub    $0x20,%rsp
  403fb5:	48 89 7d e8          	mov    %rdi,-0x18(%rbp)
  403fb9:	48 89 75 e0          	mov    %rsi,-0x20(%rbp)
/home/user102/proxylab-handout/csapp.c:505
  403fbd:	48 8b 55 e0          	mov    -0x20(%rbp),%rdx
  403fc1:	48 8b 45 e8          	mov    -0x18(%rbp),%rax
  403fc5:	48 89 d6             	mov    %rdx,%rsi
  403fc8:	48 89 c7             	mov    %rax,%rdi
  403fcb:	e8 30 de ff ff       	callq  401e00 <fopen@plt>
  403fd0:	48 89 45 f8          	mov    %rax,-0x8(%rbp)
  403fd4:	48 83 7d f8 00       	cmpq   $0x0,-0x8(%rbp)
  403fd9:	75 0a                	jne    403fe5 <Fopen+0x38>
/home/user102/proxylab-handout/csapp.c:506
  403fdb:	bf b3 53 40 00       	mov    $0x4053b3,%edi
  403fe0:	e8 c8 f3 ff ff       	callq  4033ad <unix_error>
/home/user102/proxylab-handout/csapp.c:508
  403fe5:	48 8b 45 f8          	mov    -0x8(%rbp),%rax
/home/user102/proxylab-handout/csapp.c:509
  403fe9:	c9                   	leaveq 
  403fea:	c3                   	retq   

0000000000403feb <Fputs>:
Fputs():
/home/user102/proxylab-handout/csapp.c:512
  403feb:	55                   	push   %rbp
  403fec:	48 89 e5             	mov    %rsp,%rbp
  403fef:	48 83 ec 10          	sub    $0x10,%rsp
  403ff3:	48 89 7d f8          	mov    %rdi,-0x8(%rbp)
  403ff7:	48 89 75 f0          	mov    %rsi,-0x10(%rbp)
/home/user102/proxylab-handout/csapp.c:513
  403ffb:	48 8b 55 f0          	mov    -0x10(%rbp),%rdx
  403fff:	48 8b 45 f8          	mov    -0x8(%rbp),%rax
  404003:	48 89 d6             	mov    %rdx,%rsi
  404006:	48 89 c7             	mov    %rax,%rdi
  404009:	e8 62 db ff ff       	callq  401b70 <fputs@plt>
  40400e:	83 f8 ff             	cmp    $0xffffffff,%eax
  404011:	75 0a                	jne    40401d <Fputs+0x32>
/home/user102/proxylab-handout/csapp.c:514
  404013:	bf bf 53 40 00       	mov    $0x4053bf,%edi
  404018:	e8 90 f3 ff ff       	callq  4033ad <unix_error>
/home/user102/proxylab-handout/csapp.c:515
  40401d:	90                   	nop
  40401e:	c9                   	leaveq 
  40401f:	c3                   	retq   

0000000000404020 <Fread>:
Fread():
/home/user102/proxylab-handout/csapp.c:518
  404020:	55                   	push   %rbp
  404021:	48 89 e5             	mov    %rsp,%rbp
  404024:	48 83 ec 30          	sub    $0x30,%rsp
  404028:	48 89 7d e8          	mov    %rdi,-0x18(%rbp)
  40402c:	48 89 75 e0          	mov    %rsi,-0x20(%rbp)
  404030:	48 89 55 d8          	mov    %rdx,-0x28(%rbp)
  404034:	48 89 4d d0          	mov    %rcx,-0x30(%rbp)
/home/user102/proxylab-handout/csapp.c:521
  404038:	48 8b 4d d0          	mov    -0x30(%rbp),%rcx
  40403c:	48 8b 55 d8          	mov    -0x28(%rbp),%rdx
  404040:	48 8b 75 e0          	mov    -0x20(%rbp),%rsi
  404044:	48 8b 45 e8          	mov    -0x18(%rbp),%rax
  404048:	48 89 c7             	mov    %rax,%rdi
  40404b:	e8 40 da ff ff       	callq  401a90 <fread@plt>
  404050:	48 89 45 f8          	mov    %rax,-0x8(%rbp)
  404054:	48 8b 45 f8          	mov    -0x8(%rbp),%rax
  404058:	48 3b 45 d8          	cmp    -0x28(%rbp),%rax
  40405c:	73 1a                	jae    404078 <Fread+0x58>
/home/user102/proxylab-handout/csapp.c:521 (discriminator 1)
  40405e:	48 8b 45 d0          	mov    -0x30(%rbp),%rax
  404062:	48 89 c7             	mov    %rax,%rdi
  404065:	e8 f6 d9 ff ff       	callq  401a60 <ferror@plt>
  40406a:	85 c0                	test   %eax,%eax
  40406c:	74 0a                	je     404078 <Fread+0x58>
/home/user102/proxylab-handout/csapp.c:522
  40406e:	bf cb 53 40 00       	mov    $0x4053cb,%edi
  404073:	e8 35 f3 ff ff       	callq  4033ad <unix_error>
/home/user102/proxylab-handout/csapp.c:523
  404078:	48 8b 45 f8          	mov    -0x8(%rbp),%rax
/home/user102/proxylab-handout/csapp.c:524
  40407c:	c9                   	leaveq 
  40407d:	c3                   	retq   

000000000040407e <Fwrite>:
Fwrite():
/home/user102/proxylab-handout/csapp.c:527
  40407e:	55                   	push   %rbp
  40407f:	48 89 e5             	mov    %rsp,%rbp
  404082:	48 83 ec 20          	sub    $0x20,%rsp
  404086:	48 89 7d f8          	mov    %rdi,-0x8(%rbp)
  40408a:	48 89 75 f0          	mov    %rsi,-0x10(%rbp)
  40408e:	48 89 55 e8          	mov    %rdx,-0x18(%rbp)
  404092:	48 89 4d e0          	mov    %rcx,-0x20(%rbp)
/home/user102/proxylab-handout/csapp.c:528
  404096:	48 8b 4d e0          	mov    -0x20(%rbp),%rcx
  40409a:	48 8b 55 e8          	mov    -0x18(%rbp),%rdx
  40409e:	48 8b 75 f0          	mov    -0x10(%rbp),%rsi
  4040a2:	48 8b 45 f8          	mov    -0x8(%rbp),%rax
  4040a6:	48 89 c7             	mov    %rax,%rdi
  4040a9:	e8 12 de ff ff       	callq  401ec0 <fwrite@plt>
  4040ae:	48 3b 45 e8          	cmp    -0x18(%rbp),%rax
  4040b2:	73 0a                	jae    4040be <Fwrite+0x40>
/home/user102/proxylab-handout/csapp.c:529
  4040b4:	bf d7 53 40 00       	mov    $0x4053d7,%edi
  4040b9:	e8 ef f2 ff ff       	callq  4033ad <unix_error>
/home/user102/proxylab-handout/csapp.c:530
  4040be:	90                   	nop
  4040bf:	c9                   	leaveq 
  4040c0:	c3                   	retq   

00000000004040c1 <Socket>:
Socket():
/home/user102/proxylab-handout/csapp.c:538
  4040c1:	55                   	push   %rbp
  4040c2:	48 89 e5             	mov    %rsp,%rbp
  4040c5:	48 83 ec 20          	sub    $0x20,%rsp
  4040c9:	89 7d ec             	mov    %edi,-0x14(%rbp)
  4040cc:	89 75 e8             	mov    %esi,-0x18(%rbp)
  4040cf:	89 55 e4             	mov    %edx,-0x1c(%rbp)
/home/user102/proxylab-handout/csapp.c:541
  4040d2:	8b 55 e4             	mov    -0x1c(%rbp),%edx
  4040d5:	8b 4d e8             	mov    -0x18(%rbp),%ecx
  4040d8:	8b 45 ec             	mov    -0x14(%rbp),%eax
  4040db:	89 ce                	mov    %ecx,%esi
  4040dd:	89 c7                	mov    %eax,%edi
  4040df:	e8 7c de ff ff       	callq  401f60 <socket@plt>
  4040e4:	89 45 fc             	mov    %eax,-0x4(%rbp)
  4040e7:	83 7d fc 00          	cmpl   $0x0,-0x4(%rbp)
  4040eb:	79 0a                	jns    4040f7 <Socket+0x36>
/home/user102/proxylab-handout/csapp.c:542
  4040ed:	bf e4 53 40 00       	mov    $0x4053e4,%edi
  4040f2:	e8 b6 f2 ff ff       	callq  4033ad <unix_error>
/home/user102/proxylab-handout/csapp.c:543
  4040f7:	8b 45 fc             	mov    -0x4(%rbp),%eax
/home/user102/proxylab-handout/csapp.c:544
  4040fa:	c9                   	leaveq 
  4040fb:	c3                   	retq   

00000000004040fc <Setsockopt>:
Setsockopt():
/home/user102/proxylab-handout/csapp.c:547
  4040fc:	55                   	push   %rbp
  4040fd:	48 89 e5             	mov    %rsp,%rbp
  404100:	48 83 ec 30          	sub    $0x30,%rsp
  404104:	89 7d ec             	mov    %edi,-0x14(%rbp)
  404107:	89 75 e8             	mov    %esi,-0x18(%rbp)
  40410a:	89 55 e4             	mov    %edx,-0x1c(%rbp)
  40410d:	48 89 4d d8          	mov    %rcx,-0x28(%rbp)
  404111:	44 89 45 e0          	mov    %r8d,-0x20(%rbp)
/home/user102/proxylab-handout/csapp.c:550
  404115:	8b 7d e0             	mov    -0x20(%rbp),%edi
  404118:	48 8b 4d d8          	mov    -0x28(%rbp),%rcx
  40411c:	8b 55 e4             	mov    -0x1c(%rbp),%edx
  40411f:	8b 75 e8             	mov    -0x18(%rbp),%esi
  404122:	8b 45 ec             	mov    -0x14(%rbp),%eax
  404125:	41 89 f8             	mov    %edi,%r8d
  404128:	89 c7                	mov    %eax,%edi
  40412a:	e8 71 d9 ff ff       	callq  401aa0 <setsockopt@plt>
  40412f:	89 45 fc             	mov    %eax,-0x4(%rbp)
  404132:	83 7d fc 00          	cmpl   $0x0,-0x4(%rbp)
  404136:	79 0a                	jns    404142 <Setsockopt+0x46>
/home/user102/proxylab-handout/csapp.c:551
  404138:	bf f1 53 40 00       	mov    $0x4053f1,%edi
  40413d:	e8 6b f2 ff ff       	callq  4033ad <unix_error>
/home/user102/proxylab-handout/csapp.c:552
  404142:	90                   	nop
  404143:	c9                   	leaveq 
  404144:	c3                   	retq   

0000000000404145 <Bind>:
Bind():
/home/user102/proxylab-handout/csapp.c:555
  404145:	55                   	push   %rbp
  404146:	48 89 e5             	mov    %rsp,%rbp
  404149:	48 83 ec 20          	sub    $0x20,%rsp
  40414d:	89 7d ec             	mov    %edi,-0x14(%rbp)
  404150:	48 89 75 e0          	mov    %rsi,-0x20(%rbp)
  404154:	89 55 e8             	mov    %edx,-0x18(%rbp)
/home/user102/proxylab-handout/csapp.c:558
  404157:	8b 55 e8             	mov    -0x18(%rbp),%edx
  40415a:	48 8b 4d e0          	mov    -0x20(%rbp),%rcx
  40415e:	8b 45 ec             	mov    -0x14(%rbp),%eax
  404161:	48 89 ce             	mov    %rcx,%rsi
  404164:	89 c7                	mov    %eax,%edi
  404166:	e8 35 dc ff ff       	callq  401da0 <bind@plt>
  40416b:	89 45 fc             	mov    %eax,-0x4(%rbp)
  40416e:	83 7d fc 00          	cmpl   $0x0,-0x4(%rbp)
  404172:	79 0a                	jns    40417e <Bind+0x39>
/home/user102/proxylab-handout/csapp.c:559
  404174:	bf 02 54 40 00       	mov    $0x405402,%edi
  404179:	e8 2f f2 ff ff       	callq  4033ad <unix_error>
/home/user102/proxylab-handout/csapp.c:560
  40417e:	90                   	nop
  40417f:	c9                   	leaveq 
  404180:	c3                   	retq   

0000000000404181 <Listen>:
Listen():
/home/user102/proxylab-handout/csapp.c:563
  404181:	55                   	push   %rbp
  404182:	48 89 e5             	mov    %rsp,%rbp
  404185:	48 83 ec 20          	sub    $0x20,%rsp
  404189:	89 7d ec             	mov    %edi,-0x14(%rbp)
  40418c:	89 75 e8             	mov    %esi,-0x18(%rbp)
/home/user102/proxylab-handout/csapp.c:566
  40418f:	8b 55 e8             	mov    -0x18(%rbp),%edx
  404192:	8b 45 ec             	mov    -0x14(%rbp),%eax
  404195:	89 d6                	mov    %edx,%esi
  404197:	89 c7                	mov    %eax,%edi
  404199:	e8 92 db ff ff       	callq  401d30 <listen@plt>
  40419e:	89 45 fc             	mov    %eax,-0x4(%rbp)
  4041a1:	83 7d fc 00          	cmpl   $0x0,-0x4(%rbp)
  4041a5:	79 0a                	jns    4041b1 <Listen+0x30>
/home/user102/proxylab-handout/csapp.c:567
  4041a7:	bf 0d 54 40 00       	mov    $0x40540d,%edi
  4041ac:	e8 fc f1 ff ff       	callq  4033ad <unix_error>
/home/user102/proxylab-handout/csapp.c:568
  4041b1:	90                   	nop
  4041b2:	c9                   	leaveq 
  4041b3:	c3                   	retq   

00000000004041b4 <Accept>:
Accept():
/home/user102/proxylab-handout/csapp.c:571
  4041b4:	55                   	push   %rbp
  4041b5:	48 89 e5             	mov    %rsp,%rbp
  4041b8:	48 83 ec 30          	sub    $0x30,%rsp
  4041bc:	89 7d ec             	mov    %edi,-0x14(%rbp)
  4041bf:	48 89 75 e0          	mov    %rsi,-0x20(%rbp)
  4041c3:	48 89 55 d8          	mov    %rdx,-0x28(%rbp)
/home/user102/proxylab-handout/csapp.c:574
  4041c7:	48 8b 55 d8          	mov    -0x28(%rbp),%rdx
  4041cb:	48 8b 4d e0          	mov    -0x20(%rbp),%rcx
  4041cf:	8b 45 ec             	mov    -0x14(%rbp),%eax
  4041d2:	48 89 ce             	mov    %rcx,%rsi
  4041d5:	89 c7                	mov    %eax,%edi
  4041d7:	e8 64 dc ff ff       	callq  401e40 <accept@plt>
  4041dc:	89 45 fc             	mov    %eax,-0x4(%rbp)
  4041df:	83 7d fc 00          	cmpl   $0x0,-0x4(%rbp)
  4041e3:	79 0a                	jns    4041ef <Accept+0x3b>
/home/user102/proxylab-handout/csapp.c:575
  4041e5:	bf 1a 54 40 00       	mov    $0x40541a,%edi
  4041ea:	e8 be f1 ff ff       	callq  4033ad <unix_error>
/home/user102/proxylab-handout/csapp.c:576
  4041ef:	8b 45 fc             	mov    -0x4(%rbp),%eax
/home/user102/proxylab-handout/csapp.c:577
  4041f2:	c9                   	leaveq 
  4041f3:	c3                   	retq   

00000000004041f4 <Connect>:
Connect():
/home/user102/proxylab-handout/csapp.c:580
  4041f4:	55                   	push   %rbp
  4041f5:	48 89 e5             	mov    %rsp,%rbp
  4041f8:	48 83 ec 20          	sub    $0x20,%rsp
  4041fc:	89 7d ec             	mov    %edi,-0x14(%rbp)
  4041ff:	48 89 75 e0          	mov    %rsi,-0x20(%rbp)
  404203:	89 55 e8             	mov    %edx,-0x18(%rbp)
/home/user102/proxylab-handout/csapp.c:583
  404206:	8b 55 e8             	mov    -0x18(%rbp),%edx
  404209:	48 8b 4d e0          	mov    -0x20(%rbp),%rcx
  40420d:	8b 45 ec             	mov    -0x14(%rbp),%eax
  404210:	48 89 ce             	mov    %rcx,%rsi
  404213:	89 c7                	mov    %eax,%edi
  404215:	e8 96 dc ff ff       	callq  401eb0 <connect@plt>
  40421a:	89 45 fc             	mov    %eax,-0x4(%rbp)
  40421d:	83 7d fc 00          	cmpl   $0x0,-0x4(%rbp)
  404221:	79 0a                	jns    40422d <Connect+0x39>
/home/user102/proxylab-handout/csapp.c:584
  404223:	bf 27 54 40 00       	mov    $0x405427,%edi
  404228:	e8 80 f1 ff ff       	callq  4033ad <unix_error>
/home/user102/proxylab-handout/csapp.c:585
  40422d:	90                   	nop
  40422e:	c9                   	leaveq 
  40422f:	c3                   	retq   

0000000000404230 <Getaddrinfo>:
Getaddrinfo():
/home/user102/proxylab-handout/csapp.c:593
  404230:	55                   	push   %rbp
  404231:	48 89 e5             	mov    %rsp,%rbp
  404234:	48 83 ec 30          	sub    $0x30,%rsp
  404238:	48 89 7d e8          	mov    %rdi,-0x18(%rbp)
  40423c:	48 89 75 e0          	mov    %rsi,-0x20(%rbp)
  404240:	48 89 55 d8          	mov    %rdx,-0x28(%rbp)
  404244:	48 89 4d d0          	mov    %rcx,-0x30(%rbp)
/home/user102/proxylab-handout/csapp.c:596
  404248:	48 8b 4d d0          	mov    -0x30(%rbp),%rcx
  40424c:	48 8b 55 d8          	mov    -0x28(%rbp),%rdx
  404250:	48 8b 75 e0          	mov    -0x20(%rbp),%rsi
  404254:	48 8b 45 e8          	mov    -0x18(%rbp),%rax
  404258:	48 89 c7             	mov    %rax,%rdi
  40425b:	e8 70 dc ff ff       	callq  401ed0 <getaddrinfo@plt>
  404260:	89 45 fc             	mov    %eax,-0x4(%rbp)
  404263:	83 7d fc 00          	cmpl   $0x0,-0x4(%rbp)
  404267:	74 0f                	je     404278 <Getaddrinfo+0x48>
/home/user102/proxylab-handout/csapp.c:597
  404269:	8b 45 fc             	mov    -0x4(%rbp),%eax
  40426c:	be 35 54 40 00       	mov    $0x405435,%esi
  404271:	89 c7                	mov    %eax,%edi
  404273:	e8 bc f1 ff ff       	callq  403434 <gai_error>
/home/user102/proxylab-handout/csapp.c:598
  404278:	90                   	nop
  404279:	c9                   	leaveq 
  40427a:	c3                   	retq   

000000000040427b <Getnameinfo>:
Getnameinfo():
/home/user102/proxylab-handout/csapp.c:603
  40427b:	55                   	push   %rbp
  40427c:	48 89 e5             	mov    %rsp,%rbp
  40427f:	48 83 ec 40          	sub    $0x40,%rsp
  404283:	48 89 7d e8          	mov    %rdi,-0x18(%rbp)
  404287:	89 75 e4             	mov    %esi,-0x1c(%rbp)
  40428a:	48 89 55 d8          	mov    %rdx,-0x28(%rbp)
  40428e:	48 89 4d d0          	mov    %rcx,-0x30(%rbp)
  404292:	4c 89 45 c8          	mov    %r8,-0x38(%rbp)
  404296:	4c 89 4d c0          	mov    %r9,-0x40(%rbp)
/home/user102/proxylab-handout/csapp.c:606
  40429a:	48 8b 45 c0          	mov    -0x40(%rbp),%rax
  40429e:	41 89 c0             	mov    %eax,%r8d
  4042a1:	48 8b 45 d0          	mov    -0x30(%rbp),%rax
  4042a5:	41 89 c2             	mov    %eax,%r10d
  4042a8:	48 8b 7d c8          	mov    -0x38(%rbp),%rdi
  4042ac:	48 8b 55 d8          	mov    -0x28(%rbp),%rdx
  4042b0:	8b 75 e4             	mov    -0x1c(%rbp),%esi
  4042b3:	48 8b 45 e8          	mov    -0x18(%rbp),%rax
  4042b7:	48 83 ec 08          	sub    $0x8,%rsp
  4042bb:	8b 4d 10             	mov    0x10(%rbp),%ecx
  4042be:	51                   	push   %rcx
  4042bf:	45 89 c1             	mov    %r8d,%r9d
  4042c2:	49 89 f8             	mov    %rdi,%r8
  4042c5:	44 89 d1             	mov    %r10d,%ecx
  4042c8:	48 89 c7             	mov    %rax,%rdi
  4042cb:	e8 e0 d8 ff ff       	callq  401bb0 <getnameinfo@plt>
  4042d0:	48 83 c4 10          	add    $0x10,%rsp
  4042d4:	89 45 fc             	mov    %eax,-0x4(%rbp)
  4042d7:	83 7d fc 00          	cmpl   $0x0,-0x4(%rbp)
  4042db:	74 0f                	je     4042ec <Getnameinfo+0x71>
/home/user102/proxylab-handout/csapp.c:608
  4042dd:	8b 45 fc             	mov    -0x4(%rbp),%eax
  4042e0:	be 47 54 40 00       	mov    $0x405447,%esi
  4042e5:	89 c7                	mov    %eax,%edi
  4042e7:	e8 48 f1 ff ff       	callq  403434 <gai_error>
/home/user102/proxylab-handout/csapp.c:609
  4042ec:	90                   	nop
  4042ed:	c9                   	leaveq 
  4042ee:	c3                   	retq   

00000000004042ef <Freeaddrinfo>:
Freeaddrinfo():
/home/user102/proxylab-handout/csapp.c:612
  4042ef:	55                   	push   %rbp
  4042f0:	48 89 e5             	mov    %rsp,%rbp
  4042f3:	48 83 ec 10          	sub    $0x10,%rsp
  4042f7:	48 89 7d f8          	mov    %rdi,-0x8(%rbp)
/home/user102/proxylab-handout/csapp.c:613
  4042fb:	48 8b 45 f8          	mov    -0x8(%rbp),%rax
  4042ff:	48 89 c7             	mov    %rax,%rdi
  404302:	e8 49 dc ff ff       	callq  401f50 <freeaddrinfo@plt>
/home/user102/proxylab-handout/csapp.c:614
  404307:	90                   	nop
  404308:	c9                   	leaveq 
  404309:	c3                   	retq   

000000000040430a <Inet_ntop>:
Inet_ntop():
/home/user102/proxylab-handout/csapp.c:617
  40430a:	55                   	push   %rbp
  40430b:	48 89 e5             	mov    %rsp,%rbp
  40430e:	48 83 ec 20          	sub    $0x20,%rsp
  404312:	89 7d fc             	mov    %edi,-0x4(%rbp)
  404315:	48 89 75 f0          	mov    %rsi,-0x10(%rbp)
  404319:	48 89 55 e8          	mov    %rdx,-0x18(%rbp)
  40431d:	89 4d f8             	mov    %ecx,-0x8(%rbp)
/home/user102/proxylab-handout/csapp.c:618
  404320:	8b 4d f8             	mov    -0x8(%rbp),%ecx
  404323:	48 8b 55 e8          	mov    -0x18(%rbp),%rdx
  404327:	48 8b 75 f0          	mov    -0x10(%rbp),%rsi
  40432b:	8b 45 fc             	mov    -0x4(%rbp),%eax
  40432e:	89 c7                	mov    %eax,%edi
  404330:	e8 7b d6 ff ff       	callq  4019b0 <inet_ntop@plt>
  404335:	48 85 c0             	test   %rax,%rax
  404338:	75 0a                	jne    404344 <Inet_ntop+0x3a>
/home/user102/proxylab-handout/csapp.c:619
  40433a:	bf 59 54 40 00       	mov    $0x405459,%edi
  40433f:	e8 69 f0 ff ff       	callq  4033ad <unix_error>
/home/user102/proxylab-handout/csapp.c:620
  404344:	90                   	nop
  404345:	c9                   	leaveq 
  404346:	c3                   	retq   

0000000000404347 <Inet_pton>:
Inet_pton():
/home/user102/proxylab-handout/csapp.c:623
  404347:	55                   	push   %rbp
  404348:	48 89 e5             	mov    %rsp,%rbp
  40434b:	48 83 ec 30          	sub    $0x30,%rsp
  40434f:	89 7d ec             	mov    %edi,-0x14(%rbp)
  404352:	48 89 75 e0          	mov    %rsi,-0x20(%rbp)
  404356:	48 89 55 d8          	mov    %rdx,-0x28(%rbp)
/home/user102/proxylab-handout/csapp.c:626
  40435a:	48 8b 55 d8          	mov    -0x28(%rbp),%rdx
  40435e:	48 8b 4d e0          	mov    -0x20(%rbp),%rcx
  404362:	8b 45 ec             	mov    -0x14(%rbp),%eax
  404365:	48 89 ce             	mov    %rcx,%rsi
  404368:	89 c7                	mov    %eax,%edi
  40436a:	e8 31 d9 ff ff       	callq  401ca0 <inet_pton@plt>
  40436f:	89 45 fc             	mov    %eax,-0x4(%rbp)
/home/user102/proxylab-handout/csapp.c:627
  404372:	83 7d fc 00          	cmpl   $0x0,-0x4(%rbp)
  404376:	75 0c                	jne    404384 <Inet_pton+0x3d>
/home/user102/proxylab-handout/csapp.c:628
  404378:	bf 70 54 40 00       	mov    $0x405470,%edi
  40437d:	e8 f5 f0 ff ff       	callq  403477 <app_error>
/home/user102/proxylab-handout/csapp.c:631
  404382:	eb 10                	jmp    404394 <Inet_pton+0x4d>
/home/user102/proxylab-handout/csapp.c:629
  404384:	83 7d fc 00          	cmpl   $0x0,-0x4(%rbp)
  404388:	79 0a                	jns    404394 <Inet_pton+0x4d>
/home/user102/proxylab-handout/csapp.c:630
  40438a:	bf a0 54 40 00       	mov    $0x4054a0,%edi
  40438f:	e8 19 f0 ff ff       	callq  4033ad <unix_error>
/home/user102/proxylab-handout/csapp.c:631
  404394:	90                   	nop
  404395:	c9                   	leaveq 
  404396:	c3                   	retq   

0000000000404397 <Gethostbyname>:
Gethostbyname():
/home/user102/proxylab-handout/csapp.c:642
  404397:	55                   	push   %rbp
  404398:	48 89 e5             	mov    %rsp,%rbp
  40439b:	48 83 ec 20          	sub    $0x20,%rsp
  40439f:	48 89 7d e8          	mov    %rdi,-0x18(%rbp)
/home/user102/proxylab-handout/csapp.c:645
  4043a3:	48 8b 45 e8          	mov    -0x18(%rbp),%rax
  4043a7:	48 89 c7             	mov    %rax,%rdi
  4043aa:	e8 91 d8 ff ff       	callq  401c40 <gethostbyname@plt>
  4043af:	48 89 45 f8          	mov    %rax,-0x8(%rbp)
  4043b3:	48 83 7d f8 00       	cmpq   $0x0,-0x8(%rbp)
  4043b8:	75 0a                	jne    4043c4 <Gethostbyname+0x2d>
/home/user102/proxylab-handout/csapp.c:646
  4043ba:	bf b0 54 40 00       	mov    $0x4054b0,%edi
  4043bf:	e8 e6 f0 ff ff       	callq  4034aa <dns_error>
/home/user102/proxylab-handout/csapp.c:647
  4043c4:	48 8b 45 f8          	mov    -0x8(%rbp),%rax
/home/user102/proxylab-handout/csapp.c:648
  4043c8:	c9                   	leaveq 
  4043c9:	c3                   	retq   

00000000004043ca <Gethostbyaddr>:
Gethostbyaddr():
/home/user102/proxylab-handout/csapp.c:652
  4043ca:	55                   	push   %rbp
  4043cb:	48 89 e5             	mov    %rsp,%rbp
  4043ce:	48 83 ec 20          	sub    $0x20,%rsp
  4043d2:	48 89 7d e8          	mov    %rdi,-0x18(%rbp)
  4043d6:	89 75 e4             	mov    %esi,-0x1c(%rbp)
  4043d9:	89 55 e0             	mov    %edx,-0x20(%rbp)
/home/user102/proxylab-handout/csapp.c:655
  4043dc:	8b 4d e4             	mov    -0x1c(%rbp),%ecx
  4043df:	8b 55 e0             	mov    -0x20(%rbp),%edx
  4043e2:	48 8b 45 e8          	mov    -0x18(%rbp),%rax
  4043e6:	89 ce                	mov    %ecx,%esi
  4043e8:	48 89 c7             	mov    %rax,%rdi
  4043eb:	e8 80 da ff ff       	callq  401e70 <gethostbyaddr@plt>
  4043f0:	48 89 45 f8          	mov    %rax,-0x8(%rbp)
  4043f4:	48 83 7d f8 00       	cmpq   $0x0,-0x8(%rbp)
  4043f9:	75 0a                	jne    404405 <Gethostbyaddr+0x3b>
/home/user102/proxylab-handout/csapp.c:656
  4043fb:	bf c4 54 40 00       	mov    $0x4054c4,%edi
  404400:	e8 a5 f0 ff ff       	callq  4034aa <dns_error>
/home/user102/proxylab-handout/csapp.c:657
  404405:	48 8b 45 f8          	mov    -0x8(%rbp),%rax
/home/user102/proxylab-handout/csapp.c:658
  404409:	c9                   	leaveq 
  40440a:	c3                   	retq   

000000000040440b <Pthread_create>:
Pthread_create():
/home/user102/proxylab-handout/csapp.c:666
  40440b:	55                   	push   %rbp
  40440c:	48 89 e5             	mov    %rsp,%rbp
  40440f:	48 83 ec 30          	sub    $0x30,%rsp
  404413:	48 89 7d e8          	mov    %rdi,-0x18(%rbp)
  404417:	48 89 75 e0          	mov    %rsi,-0x20(%rbp)
  40441b:	48 89 55 d8          	mov    %rdx,-0x28(%rbp)
  40441f:	48 89 4d d0          	mov    %rcx,-0x30(%rbp)
/home/user102/proxylab-handout/csapp.c:669
  404423:	48 8b 4d d0          	mov    -0x30(%rbp),%rcx
  404427:	48 8b 55 d8          	mov    -0x28(%rbp),%rdx
  40442b:	48 8b 75 e0          	mov    -0x20(%rbp),%rsi
  40442f:	48 8b 45 e8          	mov    -0x18(%rbp),%rax
  404433:	48 89 c7             	mov    %rax,%rdi
  404436:	e8 a5 d5 ff ff       	callq  4019e0 <pthread_create@plt>
  40443b:	89 45 fc             	mov    %eax,-0x4(%rbp)
  40443e:	83 7d fc 00          	cmpl   $0x0,-0x4(%rbp)
  404442:	74 0f                	je     404453 <Pthread_create+0x48>
/home/user102/proxylab-handout/csapp.c:670
  404444:	8b 45 fc             	mov    -0x4(%rbp),%eax
  404447:	be d8 54 40 00       	mov    $0x4054d8,%esi
  40444c:	89 c7                	mov    %eax,%edi
  40444e:	e8 9e ef ff ff       	callq  4033f1 <posix_error>
/home/user102/proxylab-handout/csapp.c:671
  404453:	90                   	nop
  404454:	c9                   	leaveq 
  404455:	c3                   	retq   

0000000000404456 <Pthread_cancel>:
Pthread_cancel():
/home/user102/proxylab-handout/csapp.c:673
  404456:	55                   	push   %rbp
  404457:	48 89 e5             	mov    %rsp,%rbp
  40445a:	48 83 ec 20          	sub    $0x20,%rsp
  40445e:	48 89 7d e8          	mov    %rdi,-0x18(%rbp)
/home/user102/proxylab-handout/csapp.c:676
  404462:	48 8b 45 e8          	mov    -0x18(%rbp),%rax
  404466:	48 89 c7             	mov    %rax,%rdi
  404469:	e8 02 d6 ff ff       	callq  401a70 <pthread_cancel@plt>
  40446e:	89 45 fc             	mov    %eax,-0x4(%rbp)
  404471:	83 7d fc 00          	cmpl   $0x0,-0x4(%rbp)
  404475:	74 0f                	je     404486 <Pthread_cancel+0x30>
/home/user102/proxylab-handout/csapp.c:677
  404477:	8b 45 fc             	mov    -0x4(%rbp),%eax
  40447a:	be ed 54 40 00       	mov    $0x4054ed,%esi
  40447f:	89 c7                	mov    %eax,%edi
  404481:	e8 6b ef ff ff       	callq  4033f1 <posix_error>
/home/user102/proxylab-handout/csapp.c:678
  404486:	90                   	nop
  404487:	c9                   	leaveq 
  404488:	c3                   	retq   

0000000000404489 <Pthread_join>:
Pthread_join():
/home/user102/proxylab-handout/csapp.c:680
  404489:	55                   	push   %rbp
  40448a:	48 89 e5             	mov    %rsp,%rbp
  40448d:	48 83 ec 20          	sub    $0x20,%rsp
  404491:	48 89 7d e8          	mov    %rdi,-0x18(%rbp)
  404495:	48 89 75 e0          	mov    %rsi,-0x20(%rbp)
/home/user102/proxylab-handout/csapp.c:683
  404499:	48 8b 55 e0          	mov    -0x20(%rbp),%rdx
  40449d:	48 8b 45 e8          	mov    -0x18(%rbp),%rax
  4044a1:	48 89 d6             	mov    %rdx,%rsi
  4044a4:	48 89 c7             	mov    %rax,%rdi
  4044a7:	e8 84 d9 ff ff       	callq  401e30 <pthread_join@plt>
  4044ac:	89 45 fc             	mov    %eax,-0x4(%rbp)
  4044af:	83 7d fc 00          	cmpl   $0x0,-0x4(%rbp)
  4044b3:	74 0f                	je     4044c4 <Pthread_join+0x3b>
/home/user102/proxylab-handout/csapp.c:684
  4044b5:	8b 45 fc             	mov    -0x4(%rbp),%eax
  4044b8:	be 02 55 40 00       	mov    $0x405502,%esi
  4044bd:	89 c7                	mov    %eax,%edi
  4044bf:	e8 2d ef ff ff       	callq  4033f1 <posix_error>
/home/user102/proxylab-handout/csapp.c:685
  4044c4:	90                   	nop
  4044c5:	c9                   	leaveq 
  4044c6:	c3                   	retq   

00000000004044c7 <Pthread_detach>:
Pthread_detach():
/home/user102/proxylab-handout/csapp.c:688
  4044c7:	55                   	push   %rbp
  4044c8:	48 89 e5             	mov    %rsp,%rbp
  4044cb:	48 83 ec 20          	sub    $0x20,%rsp
  4044cf:	48 89 7d e8          	mov    %rdi,-0x18(%rbp)
/home/user102/proxylab-handout/csapp.c:691
  4044d3:	48 8b 45 e8          	mov    -0x18(%rbp),%rax
  4044d7:	48 89 c7             	mov    %rax,%rdi
  4044da:	e8 21 d5 ff ff       	callq  401a00 <pthread_detach@plt>
  4044df:	89 45 fc             	mov    %eax,-0x4(%rbp)
  4044e2:	83 7d fc 00          	cmpl   $0x0,-0x4(%rbp)
  4044e6:	74 0f                	je     4044f7 <Pthread_detach+0x30>
/home/user102/proxylab-handout/csapp.c:692
  4044e8:	8b 45 fc             	mov    -0x4(%rbp),%eax
  4044eb:	be 15 55 40 00       	mov    $0x405515,%esi
  4044f0:	89 c7                	mov    %eax,%edi
  4044f2:	e8 fa ee ff ff       	callq  4033f1 <posix_error>
/home/user102/proxylab-handout/csapp.c:693
  4044f7:	90                   	nop
  4044f8:	c9                   	leaveq 
  4044f9:	c3                   	retq   

00000000004044fa <Pthread_exit>:
Pthread_exit():
/home/user102/proxylab-handout/csapp.c:696
  4044fa:	55                   	push   %rbp
  4044fb:	48 89 e5             	mov    %rsp,%rbp
  4044fe:	48 83 ec 10          	sub    $0x10,%rsp
  404502:	48 89 7d f8          	mov    %rdi,-0x8(%rbp)
/home/user102/proxylab-handout/csapp.c:697
  404506:	48 8b 45 f8          	mov    -0x8(%rbp),%rax
  40450a:	48 89 c7             	mov    %rax,%rdi
  40450d:	e8 ee d7 ff ff       	callq  401d00 <pthread_exit@plt>

0000000000404512 <Pthread_self>:
Pthread_self():
/home/user102/proxylab-handout/csapp.c:700
  404512:	55                   	push   %rbp
  404513:	48 89 e5             	mov    %rsp,%rbp
/home/user102/proxylab-handout/csapp.c:701
  404516:	e8 95 d8 ff ff       	callq  401db0 <pthread_self@plt>
/home/user102/proxylab-handout/csapp.c:702
  40451b:	5d                   	pop    %rbp
  40451c:	c3                   	retq   

000000000040451d <Pthread_once>:
Pthread_once():
/home/user102/proxylab-handout/csapp.c:704
  40451d:	55                   	push   %rbp
  40451e:	48 89 e5             	mov    %rsp,%rbp
  404521:	48 83 ec 10          	sub    $0x10,%rsp
  404525:	48 89 7d f8          	mov    %rdi,-0x8(%rbp)
  404529:	48 89 75 f0          	mov    %rsi,-0x10(%rbp)
/home/user102/proxylab-handout/csapp.c:705
  40452d:	48 8b 55 f0          	mov    -0x10(%rbp),%rdx
  404531:	48 8b 45 f8          	mov    -0x8(%rbp),%rax
  404535:	48 89 d6             	mov    %rdx,%rsi
  404538:	48 89 c7             	mov    %rax,%rdi
  40453b:	e8 80 d5 ff ff       	callq  401ac0 <pthread_once@plt>
/home/user102/proxylab-handout/csapp.c:706
  404540:	90                   	nop
  404541:	c9                   	leaveq 
  404542:	c3                   	retq   

0000000000404543 <Sem_init>:
Sem_init():
/home/user102/proxylab-handout/csapp.c:713
  404543:	55                   	push   %rbp
  404544:	48 89 e5             	mov    %rsp,%rbp
  404547:	48 83 ec 10          	sub    $0x10,%rsp
  40454b:	48 89 7d f8          	mov    %rdi,-0x8(%rbp)
  40454f:	89 75 f4             	mov    %esi,-0xc(%rbp)
  404552:	89 55 f0             	mov    %edx,-0x10(%rbp)
/home/user102/proxylab-handout/csapp.c:714
  404555:	8b 55 f0             	mov    -0x10(%rbp),%edx
  404558:	8b 4d f4             	mov    -0xc(%rbp),%ecx
  40455b:	48 8b 45 f8          	mov    -0x8(%rbp),%rax
  40455f:	89 ce                	mov    %ecx,%esi
  404561:	48 89 c7             	mov    %rax,%rdi
  404564:	e8 67 d8 ff ff       	callq  401dd0 <sem_init@plt>
  404569:	85 c0                	test   %eax,%eax
  40456b:	79 0a                	jns    404577 <Sem_init+0x34>
/home/user102/proxylab-handout/csapp.c:715
  40456d:	bf 2a 55 40 00       	mov    $0x40552a,%edi
  404572:	e8 36 ee ff ff       	callq  4033ad <unix_error>
/home/user102/proxylab-handout/csapp.c:716
  404577:	90                   	nop
  404578:	c9                   	leaveq 
  404579:	c3                   	retq   

000000000040457a <P>:
P():
/home/user102/proxylab-handout/csapp.c:719
  40457a:	55                   	push   %rbp
  40457b:	48 89 e5             	mov    %rsp,%rbp
  40457e:	48 83 ec 10          	sub    $0x10,%rsp
  404582:	48 89 7d f8          	mov    %rdi,-0x8(%rbp)
/home/user102/proxylab-handout/csapp.c:720
  404586:	48 8b 45 f8          	mov    -0x8(%rbp),%rax
  40458a:	48 89 c7             	mov    %rax,%rdi
  40458d:	e8 be d6 ff ff       	callq  401c50 <sem_wait@plt>
  404592:	85 c0                	test   %eax,%eax
  404594:	79 0a                	jns    4045a0 <P+0x26>
/home/user102/proxylab-handout/csapp.c:721
  404596:	bf 39 55 40 00       	mov    $0x405539,%edi
  40459b:	e8 0d ee ff ff       	callq  4033ad <unix_error>
/home/user102/proxylab-handout/csapp.c:722
  4045a0:	90                   	nop
  4045a1:	c9                   	leaveq 
  4045a2:	c3                   	retq   

00000000004045a3 <V>:
V():
/home/user102/proxylab-handout/csapp.c:725
  4045a3:	55                   	push   %rbp
  4045a4:	48 89 e5             	mov    %rsp,%rbp
  4045a7:	48 83 ec 10          	sub    $0x10,%rsp
  4045ab:	48 89 7d f8          	mov    %rdi,-0x8(%rbp)
/home/user102/proxylab-handout/csapp.c:726
  4045af:	48 8b 45 f8          	mov    -0x8(%rbp),%rax
  4045b3:	48 89 c7             	mov    %rax,%rdi
  4045b6:	e8 95 d7 ff ff       	callq  401d50 <sem_post@plt>
  4045bb:	85 c0                	test   %eax,%eax
  4045bd:	79 0a                	jns    4045c9 <V+0x26>
/home/user102/proxylab-handout/csapp.c:727
  4045bf:	bf 41 55 40 00       	mov    $0x405541,%edi
  4045c4:	e8 e4 ed ff ff       	callq  4033ad <unix_error>
/home/user102/proxylab-handout/csapp.c:728
  4045c9:	90                   	nop
  4045ca:	c9                   	leaveq 
  4045cb:	c3                   	retq   

00000000004045cc <rio_readn>:
rio_readn():
/home/user102/proxylab-handout/csapp.c:739
  4045cc:	55                   	push   %rbp
  4045cd:	48 89 e5             	mov    %rsp,%rbp
  4045d0:	48 83 ec 40          	sub    $0x40,%rsp
  4045d4:	89 7d dc             	mov    %edi,-0x24(%rbp)
  4045d7:	48 89 75 d0          	mov    %rsi,-0x30(%rbp)
  4045db:	48 89 55 c8          	mov    %rdx,-0x38(%rbp)
/home/user102/proxylab-handout/csapp.c:740
  4045df:	48 8b 45 c8          	mov    -0x38(%rbp),%rax
  4045e3:	48 89 45 e8          	mov    %rax,-0x18(%rbp)
/home/user102/proxylab-handout/csapp.c:742
  4045e7:	48 8b 45 d0          	mov    -0x30(%rbp),%rax
  4045eb:	48 89 45 f8          	mov    %rax,-0x8(%rbp)
/home/user102/proxylab-handout/csapp.c:744
  4045ef:	eb 56                	jmp    404647 <rio_readn+0x7b>
/home/user102/proxylab-handout/csapp.c:745
  4045f1:	48 8b 55 e8          	mov    -0x18(%rbp),%rdx
  4045f5:	48 8b 4d f8          	mov    -0x8(%rbp),%rcx
  4045f9:	8b 45 dc             	mov    -0x24(%rbp),%eax
  4045fc:	48 89 ce             	mov    %rcx,%rsi
  4045ff:	89 c7                	mov    %eax,%edi
  404601:	e8 da d5 ff ff       	callq  401be0 <read@plt>
  404606:	48 89 45 f0          	mov    %rax,-0x10(%rbp)
  40460a:	48 83 7d f0 00       	cmpq   $0x0,-0x10(%rbp)
  40460f:	79 1f                	jns    404630 <rio_readn+0x64>
/home/user102/proxylab-handout/csapp.c:746
  404611:	e8 fa d3 ff ff       	callq  401a10 <__errno_location@plt>
  404616:	8b 00                	mov    (%rax),%eax
  404618:	83 f8 04             	cmp    $0x4,%eax
  40461b:	75 0a                	jne    404627 <rio_readn+0x5b>
/home/user102/proxylab-handout/csapp.c:747
  40461d:	48 c7 45 f0 00 00 00 	movq   $0x0,-0x10(%rbp)
  404624:	00 
  404625:	eb 10                	jmp    404637 <rio_readn+0x6b>
/home/user102/proxylab-handout/csapp.c:749
  404627:	48 c7 c0 ff ff ff ff 	mov    $0xffffffffffffffff,%rax
  40462e:	eb 29                	jmp    404659 <rio_readn+0x8d>
/home/user102/proxylab-handout/csapp.c:751
  404630:	48 83 7d f0 00       	cmpq   $0x0,-0x10(%rbp)
  404635:	74 19                	je     404650 <rio_readn+0x84>
/home/user102/proxylab-handout/csapp.c:753
  404637:	48 8b 45 f0          	mov    -0x10(%rbp),%rax
  40463b:	48 29 45 e8          	sub    %rax,-0x18(%rbp)
/home/user102/proxylab-handout/csapp.c:754
  40463f:	48 8b 45 f0          	mov    -0x10(%rbp),%rax
  404643:	48 01 45 f8          	add    %rax,-0x8(%rbp)
/home/user102/proxylab-handout/csapp.c:744
  404647:	48 83 7d e8 00       	cmpq   $0x0,-0x18(%rbp)
  40464c:	75 a3                	jne    4045f1 <rio_readn+0x25>
  40464e:	eb 01                	jmp    404651 <rio_readn+0x85>
/home/user102/proxylab-handout/csapp.c:752
  404650:	90                   	nop
/home/user102/proxylab-handout/csapp.c:756
  404651:	48 8b 45 c8          	mov    -0x38(%rbp),%rax
  404655:	48 2b 45 e8          	sub    -0x18(%rbp),%rax
/home/user102/proxylab-handout/csapp.c:757
  404659:	c9                   	leaveq 
  40465a:	c3                   	retq   

000000000040465b <rio_writen>:
rio_writen():
/home/user102/proxylab-handout/csapp.c:765
  40465b:	55                   	push   %rbp
  40465c:	48 89 e5             	mov    %rsp,%rbp
  40465f:	48 83 ec 40          	sub    $0x40,%rsp
  404663:	89 7d dc             	mov    %edi,-0x24(%rbp)
  404666:	48 89 75 d0          	mov    %rsi,-0x30(%rbp)
  40466a:	48 89 55 c8          	mov    %rdx,-0x38(%rbp)
/home/user102/proxylab-handout/csapp.c:766
  40466e:	48 8b 45 c8          	mov    -0x38(%rbp),%rax
  404672:	48 89 45 e8          	mov    %rax,-0x18(%rbp)
/home/user102/proxylab-handout/csapp.c:768
  404676:	48 8b 45 d0          	mov    -0x30(%rbp),%rax
  40467a:	48 89 45 f8          	mov    %rax,-0x8(%rbp)
/home/user102/proxylab-handout/csapp.c:770
  40467e:	eb 4f                	jmp    4046cf <rio_writen+0x74>
/home/user102/proxylab-handout/csapp.c:771
  404680:	48 8b 55 e8          	mov    -0x18(%rbp),%rdx
  404684:	48 8b 4d f8          	mov    -0x8(%rbp),%rcx
  404688:	8b 45 dc             	mov    -0x24(%rbp),%eax
  40468b:	48 89 ce             	mov    %rcx,%rsi
  40468e:	89 c7                	mov    %eax,%edi
  404690:	e8 1b d4 ff ff       	callq  401ab0 <write@plt>
  404695:	48 89 45 f0          	mov    %rax,-0x10(%rbp)
  404699:	48 83 7d f0 00       	cmpq   $0x0,-0x10(%rbp)
  40469e:	7f 1f                	jg     4046bf <rio_writen+0x64>
/home/user102/proxylab-handout/csapp.c:772
  4046a0:	e8 6b d3 ff ff       	callq  401a10 <__errno_location@plt>
  4046a5:	8b 00                	mov    (%rax),%eax
  4046a7:	83 f8 04             	cmp    $0x4,%eax
  4046aa:	75 0a                	jne    4046b6 <rio_writen+0x5b>
/home/user102/proxylab-handout/csapp.c:773
  4046ac:	48 c7 45 f0 00 00 00 	movq   $0x0,-0x10(%rbp)
  4046b3:	00 
  4046b4:	eb 09                	jmp    4046bf <rio_writen+0x64>
/home/user102/proxylab-handout/csapp.c:775
  4046b6:	48 c7 c0 ff ff ff ff 	mov    $0xffffffffffffffff,%rax
  4046bd:	eb 1b                	jmp    4046da <rio_writen+0x7f>
/home/user102/proxylab-handout/csapp.c:777
  4046bf:	48 8b 45 f0          	mov    -0x10(%rbp),%rax
  4046c3:	48 29 45 e8          	sub    %rax,-0x18(%rbp)
/home/user102/proxylab-handout/csapp.c:778
  4046c7:	48 8b 45 f0          	mov    -0x10(%rbp),%rax
  4046cb:	48 01 45 f8          	add    %rax,-0x8(%rbp)
/home/user102/proxylab-handout/csapp.c:770
  4046cf:	48 83 7d e8 00       	cmpq   $0x0,-0x18(%rbp)
  4046d4:	75 aa                	jne    404680 <rio_writen+0x25>
/home/user102/proxylab-handout/csapp.c:780
  4046d6:	48 8b 45 c8          	mov    -0x38(%rbp),%rax
/home/user102/proxylab-handout/csapp.c:781
  4046da:	c9                   	leaveq 
  4046db:	c3                   	retq   

00000000004046dc <rio_read>:
rio_read():
/home/user102/proxylab-handout/csapp.c:795
  4046dc:	55                   	push   %rbp
  4046dd:	48 89 e5             	mov    %rsp,%rbp
  4046e0:	48 83 ec 30          	sub    $0x30,%rsp
  4046e4:	48 89 7d e8          	mov    %rdi,-0x18(%rbp)
  4046e8:	48 89 75 e0          	mov    %rsi,-0x20(%rbp)
  4046ec:	48 89 55 d8          	mov    %rdx,-0x28(%rbp)
/home/user102/proxylab-handout/csapp.c:798
  4046f0:	eb 6e                	jmp    404760 <rio_read+0x84>
/home/user102/proxylab-handout/csapp.c:799
  4046f2:	48 8b 45 e8          	mov    -0x18(%rbp),%rax
  4046f6:	48 8d 48 10          	lea    0x10(%rax),%rcx
  4046fa:	48 8b 45 e8          	mov    -0x18(%rbp),%rax
  4046fe:	8b 00                	mov    (%rax),%eax
  404700:	ba 00 20 00 00       	mov    $0x2000,%edx
  404705:	48 89 ce             	mov    %rcx,%rsi
  404708:	89 c7                	mov    %eax,%edi
  40470a:	e8 d1 d4 ff ff       	callq  401be0 <read@plt>
  40470f:	89 c2                	mov    %eax,%edx
  404711:	48 8b 45 e8          	mov    -0x18(%rbp),%rax
  404715:	89 50 04             	mov    %edx,0x4(%rax)
/home/user102/proxylab-handout/csapp.c:801
  404718:	48 8b 45 e8          	mov    -0x18(%rbp),%rax
  40471c:	8b 40 04             	mov    0x4(%rax),%eax
  40471f:	85 c0                	test   %eax,%eax
  404721:	79 18                	jns    40473b <rio_read+0x5f>
/home/user102/proxylab-handout/csapp.c:802
  404723:	e8 e8 d2 ff ff       	callq  401a10 <__errno_location@plt>
  404728:	8b 00                	mov    (%rax),%eax
  40472a:	83 f8 04             	cmp    $0x4,%eax
  40472d:	74 31                	je     404760 <rio_read+0x84>
/home/user102/proxylab-handout/csapp.c:803
  40472f:	48 c7 c0 ff ff ff ff 	mov    $0xffffffffffffffff,%rax
  404736:	e9 9d 00 00 00       	jmpq   4047d8 <rio_read+0xfc>
/home/user102/proxylab-handout/csapp.c:805
  40473b:	48 8b 45 e8          	mov    -0x18(%rbp),%rax
  40473f:	8b 40 04             	mov    0x4(%rax),%eax
  404742:	85 c0                	test   %eax,%eax
  404744:	75 0a                	jne    404750 <rio_read+0x74>
/home/user102/proxylab-handout/csapp.c:806
  404746:	b8 00 00 00 00       	mov    $0x0,%eax
  40474b:	e9 88 00 00 00       	jmpq   4047d8 <rio_read+0xfc>
/home/user102/proxylab-handout/csapp.c:808
  404750:	48 8b 45 e8          	mov    -0x18(%rbp),%rax
  404754:	48 8d 50 10          	lea    0x10(%rax),%rdx
  404758:	48 8b 45 e8          	mov    -0x18(%rbp),%rax
  40475c:	48 89 50 08          	mov    %rdx,0x8(%rax)
/home/user102/proxylab-handout/csapp.c:798
  404760:	48 8b 45 e8          	mov    -0x18(%rbp),%rax
  404764:	8b 40 04             	mov    0x4(%rax),%eax
  404767:	85 c0                	test   %eax,%eax
  404769:	7e 87                	jle    4046f2 <rio_read+0x16>
/home/user102/proxylab-handout/csapp.c:812
  40476b:	48 8b 45 d8          	mov    -0x28(%rbp),%rax
  40476f:	89 45 fc             	mov    %eax,-0x4(%rbp)
/home/user102/proxylab-handout/csapp.c:813
  404772:	48 8b 45 e8          	mov    -0x18(%rbp),%rax
  404776:	8b 40 04             	mov    0x4(%rax),%eax
  404779:	48 98                	cltq   
  40477b:	48 3b 45 d8          	cmp    -0x28(%rbp),%rax
  40477f:	73 0a                	jae    40478b <rio_read+0xaf>
/home/user102/proxylab-handout/csapp.c:814
  404781:	48 8b 45 e8          	mov    -0x18(%rbp),%rax
  404785:	8b 40 04             	mov    0x4(%rax),%eax
  404788:	89 45 fc             	mov    %eax,-0x4(%rbp)
/home/user102/proxylab-handout/csapp.c:815
  40478b:	8b 45 fc             	mov    -0x4(%rbp),%eax
  40478e:	48 63 d0             	movslq %eax,%rdx
  404791:	48 8b 45 e8          	mov    -0x18(%rbp),%rax
  404795:	48 8b 48 08          	mov    0x8(%rax),%rcx
  404799:	48 8b 45 e0          	mov    -0x20(%rbp),%rax
  40479d:	48 89 ce             	mov    %rcx,%rsi
  4047a0:	48 89 c7             	mov    %rax,%rdi
  4047a3:	e8 e8 d4 ff ff       	callq  401c90 <memcpy@plt>
/home/user102/proxylab-handout/csapp.c:816
  4047a8:	48 8b 45 e8          	mov    -0x18(%rbp),%rax
  4047ac:	48 8b 50 08          	mov    0x8(%rax),%rdx
  4047b0:	8b 45 fc             	mov    -0x4(%rbp),%eax
  4047b3:	48 98                	cltq   
  4047b5:	48 01 c2             	add    %rax,%rdx
  4047b8:	48 8b 45 e8          	mov    -0x18(%rbp),%rax
  4047bc:	48 89 50 08          	mov    %rdx,0x8(%rax)
/home/user102/proxylab-handout/csapp.c:817
  4047c0:	48 8b 45 e8          	mov    -0x18(%rbp),%rax
  4047c4:	8b 40 04             	mov    0x4(%rax),%eax
  4047c7:	2b 45 fc             	sub    -0x4(%rbp),%eax
  4047ca:	89 c2                	mov    %eax,%edx
  4047cc:	48 8b 45 e8          	mov    -0x18(%rbp),%rax
  4047d0:	89 50 04             	mov    %edx,0x4(%rax)
/home/user102/proxylab-handout/csapp.c:818
  4047d3:	8b 45 fc             	mov    -0x4(%rbp),%eax
  4047d6:	48 98                	cltq   
/home/user102/proxylab-handout/csapp.c:819
  4047d8:	c9                   	leaveq 
  4047d9:	c3                   	retq   

00000000004047da <rio_readinitb>:
rio_readinitb():
/home/user102/proxylab-handout/csapp.c:827
  4047da:	55                   	push   %rbp
  4047db:	48 89 e5             	mov    %rsp,%rbp
  4047de:	48 89 7d f8          	mov    %rdi,-0x8(%rbp)
  4047e2:	89 75 f4             	mov    %esi,-0xc(%rbp)
/home/user102/proxylab-handout/csapp.c:828
  4047e5:	48 8b 45 f8          	mov    -0x8(%rbp),%rax
  4047e9:	8b 55 f4             	mov    -0xc(%rbp),%edx
  4047ec:	89 10                	mov    %edx,(%rax)
/home/user102/proxylab-handout/csapp.c:829
  4047ee:	48 8b 45 f8          	mov    -0x8(%rbp),%rax
  4047f2:	c7 40 04 00 00 00 00 	movl   $0x0,0x4(%rax)
/home/user102/proxylab-handout/csapp.c:830
  4047f9:	48 8b 45 f8          	mov    -0x8(%rbp),%rax
  4047fd:	48 8d 50 10          	lea    0x10(%rax),%rdx
  404801:	48 8b 45 f8          	mov    -0x8(%rbp),%rax
  404805:	48 89 50 08          	mov    %rdx,0x8(%rax)
/home/user102/proxylab-handout/csapp.c:831
  404809:	90                   	nop
  40480a:	5d                   	pop    %rbp
  40480b:	c3                   	retq   

000000000040480c <rio_readnb>:
rio_readnb():
/home/user102/proxylab-handout/csapp.c:839
  40480c:	55                   	push   %rbp
  40480d:	48 89 e5             	mov    %rsp,%rbp
  404810:	48 83 ec 40          	sub    $0x40,%rsp
  404814:	48 89 7d d8          	mov    %rdi,-0x28(%rbp)
  404818:	48 89 75 d0          	mov    %rsi,-0x30(%rbp)
  40481c:	48 89 55 c8          	mov    %rdx,-0x38(%rbp)
/home/user102/proxylab-handout/csapp.c:840
  404820:	48 8b 45 c8          	mov    -0x38(%rbp),%rax
  404824:	48 89 45 e8          	mov    %rax,-0x18(%rbp)
/home/user102/proxylab-handout/csapp.c:842
  404828:	48 8b 45 d0          	mov    -0x30(%rbp),%rax
  40482c:	48 89 45 f0          	mov    %rax,-0x10(%rbp)
/home/user102/proxylab-handout/csapp.c:844
  404830:	eb 42                	jmp    404874 <rio_readnb+0x68>
/home/user102/proxylab-handout/csapp.c:845
  404832:	48 8b 55 e8          	mov    -0x18(%rbp),%rdx
  404836:	48 8b 4d f0          	mov    -0x10(%rbp),%rcx
  40483a:	48 8b 45 d8          	mov    -0x28(%rbp),%rax
  40483e:	48 89 ce             	mov    %rcx,%rsi
  404841:	48 89 c7             	mov    %rax,%rdi
  404844:	e8 93 fe ff ff       	callq  4046dc <rio_read>
  404849:	48 89 45 f8          	mov    %rax,-0x8(%rbp)
  40484d:	48 83 7d f8 00       	cmpq   $0x0,-0x8(%rbp)
  404852:	79 09                	jns    40485d <rio_readnb+0x51>
/home/user102/proxylab-handout/csapp.c:846
  404854:	48 c7 c0 ff ff ff ff 	mov    $0xffffffffffffffff,%rax
  40485b:	eb 29                	jmp    404886 <rio_readnb+0x7a>
/home/user102/proxylab-handout/csapp.c:847
  40485d:	48 83 7d f8 00       	cmpq   $0x0,-0x8(%rbp)
  404862:	74 19                	je     40487d <rio_readnb+0x71>
/home/user102/proxylab-handout/csapp.c:849
  404864:	48 8b 45 f8          	mov    -0x8(%rbp),%rax
  404868:	48 29 45 e8          	sub    %rax,-0x18(%rbp)
/home/user102/proxylab-handout/csapp.c:850
  40486c:	48 8b 45 f8          	mov    -0x8(%rbp),%rax
  404870:	48 01 45 f0          	add    %rax,-0x10(%rbp)
/home/user102/proxylab-handout/csapp.c:844
  404874:	48 83 7d e8 00       	cmpq   $0x0,-0x18(%rbp)
  404879:	75 b7                	jne    404832 <rio_readnb+0x26>
  40487b:	eb 01                	jmp    40487e <rio_readnb+0x72>
/home/user102/proxylab-handout/csapp.c:848
  40487d:	90                   	nop
/home/user102/proxylab-handout/csapp.c:852
  40487e:	48 8b 45 c8          	mov    -0x38(%rbp),%rax
  404882:	48 2b 45 e8          	sub    -0x18(%rbp),%rax
/home/user102/proxylab-handout/csapp.c:853
  404886:	c9                   	leaveq 
  404887:	c3                   	retq   

0000000000404888 <rio_readlineb>:
rio_readlineb():
/home/user102/proxylab-handout/csapp.c:861
  404888:	55                   	push   %rbp
  404889:	48 89 e5             	mov    %rsp,%rbp
  40488c:	48 83 ec 40          	sub    $0x40,%rsp
  404890:	48 89 7d d8          	mov    %rdi,-0x28(%rbp)
  404894:	48 89 75 d0          	mov    %rsi,-0x30(%rbp)
  404898:	48 89 55 c8          	mov    %rdx,-0x38(%rbp)
  40489c:	64 48 8b 04 25 28 00 	mov    %fs:0x28,%rax
  4048a3:	00 00 
  4048a5:	48 89 45 f8          	mov    %rax,-0x8(%rbp)
  4048a9:	31 c0                	xor    %eax,%eax
/home/user102/proxylab-handout/csapp.c:863
  4048ab:	48 8b 45 d0          	mov    -0x30(%rbp),%rax
  4048af:	48 89 45 f0          	mov    %rax,-0x10(%rbp)
/home/user102/proxylab-handout/csapp.c:865
  4048b3:	c7 45 e8 01 00 00 00 	movl   $0x1,-0x18(%rbp)
  4048ba:	eb 61                	jmp    40491d <rio_readlineb+0x95>
/home/user102/proxylab-handout/csapp.c:866
  4048bc:	48 8d 4d e7          	lea    -0x19(%rbp),%rcx
  4048c0:	48 8b 45 d8          	mov    -0x28(%rbp),%rax
  4048c4:	ba 01 00 00 00       	mov    $0x1,%edx
  4048c9:	48 89 ce             	mov    %rcx,%rsi
  4048cc:	48 89 c7             	mov    %rax,%rdi
  4048cf:	e8 08 fe ff ff       	callq  4046dc <rio_read>
  4048d4:	89 45 ec             	mov    %eax,-0x14(%rbp)
  4048d7:	83 7d ec 01          	cmpl   $0x1,-0x14(%rbp)
  4048db:	75 20                	jne    4048fd <rio_readlineb+0x75>
/home/user102/proxylab-handout/csapp.c:867
  4048dd:	48 8b 45 f0          	mov    -0x10(%rbp),%rax
  4048e1:	48 8d 50 01          	lea    0x1(%rax),%rdx
  4048e5:	48 89 55 f0          	mov    %rdx,-0x10(%rbp)
  4048e9:	0f b6 55 e7          	movzbl -0x19(%rbp),%edx
  4048ed:	88 10                	mov    %dl,(%rax)
/home/user102/proxylab-handout/csapp.c:868
  4048ef:	0f b6 45 e7          	movzbl -0x19(%rbp),%eax
  4048f3:	3c 0a                	cmp    $0xa,%al
  4048f5:	75 22                	jne    404919 <rio_readlineb+0x91>
/home/user102/proxylab-handout/csapp.c:869
  4048f7:	83 45 e8 01          	addl   $0x1,-0x18(%rbp)
/home/user102/proxylab-handout/csapp.c:870
  4048fb:	eb 2e                	jmp    40492b <rio_readlineb+0xa3>
/home/user102/proxylab-handout/csapp.c:872
  4048fd:	83 7d ec 00          	cmpl   $0x0,-0x14(%rbp)
  404901:	75 0d                	jne    404910 <rio_readlineb+0x88>
/home/user102/proxylab-handout/csapp.c:873
  404903:	83 7d e8 01          	cmpl   $0x1,-0x18(%rbp)
  404907:	75 21                	jne    40492a <rio_readlineb+0xa2>
/home/user102/proxylab-handout/csapp.c:874
  404909:	b8 00 00 00 00       	mov    $0x0,%eax
  40490e:	eb 2a                	jmp    40493a <rio_readlineb+0xb2>
/home/user102/proxylab-handout/csapp.c:878
  404910:	48 c7 c0 ff ff ff ff 	mov    $0xffffffffffffffff,%rax
  404917:	eb 21                	jmp    40493a <rio_readlineb+0xb2>
/home/user102/proxylab-handout/csapp.c:865 (discriminator 2)
  404919:	83 45 e8 01          	addl   $0x1,-0x18(%rbp)
/home/user102/proxylab-handout/csapp.c:865 (discriminator 1)
  40491d:	8b 45 e8             	mov    -0x18(%rbp),%eax
  404920:	48 98                	cltq   
  404922:	48 3b 45 c8          	cmp    -0x38(%rbp),%rax
  404926:	72 94                	jb     4048bc <rio_readlineb+0x34>
  404928:	eb 01                	jmp    40492b <rio_readlineb+0xa3>
/home/user102/proxylab-handout/csapp.c:876
  40492a:	90                   	nop
/home/user102/proxylab-handout/csapp.c:880
  40492b:	48 8b 45 f0          	mov    -0x10(%rbp),%rax
  40492f:	c6 00 00             	movb   $0x0,(%rax)
/home/user102/proxylab-handout/csapp.c:881
  404932:	8b 45 e8             	mov    -0x18(%rbp),%eax
  404935:	83 e8 01             	sub    $0x1,%eax
  404938:	48 98                	cltq   
/home/user102/proxylab-handout/csapp.c:882 (discriminator 1)
  40493a:	48 8b 4d f8          	mov    -0x8(%rbp),%rcx
  40493e:	64 48 33 0c 25 28 00 	xor    %fs:0x28,%rcx
  404945:	00 00 
  404947:	74 05                	je     40494e <rio_readlineb+0xc6>
/home/user102/proxylab-handout/csapp.c:882
  404949:	e8 b2 d1 ff ff       	callq  401b00 <__stack_chk_fail@plt>
  40494e:	c9                   	leaveq 
  40494f:	c3                   	retq   

0000000000404950 <Rio_readn>:
Rio_readn():
/home/user102/proxylab-handout/csapp.c:889
  404950:	55                   	push   %rbp
  404951:	48 89 e5             	mov    %rsp,%rbp
  404954:	48 83 ec 30          	sub    $0x30,%rsp
  404958:	89 7d ec             	mov    %edi,-0x14(%rbp)
  40495b:	48 89 75 e0          	mov    %rsi,-0x20(%rbp)
  40495f:	48 89 55 d8          	mov    %rdx,-0x28(%rbp)
/home/user102/proxylab-handout/csapp.c:892
  404963:	48 8b 55 d8          	mov    -0x28(%rbp),%rdx
  404967:	48 8b 4d e0          	mov    -0x20(%rbp),%rcx
  40496b:	8b 45 ec             	mov    -0x14(%rbp),%eax
  40496e:	48 89 ce             	mov    %rcx,%rsi
  404971:	89 c7                	mov    %eax,%edi
  404973:	e8 54 fc ff ff       	callq  4045cc <rio_readn>
  404978:	48 89 45 f8          	mov    %rax,-0x8(%rbp)
  40497c:	48 83 7d f8 00       	cmpq   $0x0,-0x8(%rbp)
  404981:	79 0a                	jns    40498d <Rio_readn+0x3d>
/home/user102/proxylab-handout/csapp.c:893
  404983:	bf 49 55 40 00       	mov    $0x405549,%edi
  404988:	e8 20 ea ff ff       	callq  4033ad <unix_error>
/home/user102/proxylab-handout/csapp.c:894
  40498d:	48 8b 45 f8          	mov    -0x8(%rbp),%rax
/home/user102/proxylab-handout/csapp.c:895
  404991:	c9                   	leaveq 
  404992:	c3                   	retq   

0000000000404993 <Rio_writen>:
Rio_writen():
/home/user102/proxylab-handout/csapp.c:898
  404993:	55                   	push   %rbp
  404994:	48 89 e5             	mov    %rsp,%rbp
  404997:	48 83 ec 20          	sub    $0x20,%rsp
  40499b:	89 7d fc             	mov    %edi,-0x4(%rbp)
  40499e:	48 89 75 f0          	mov    %rsi,-0x10(%rbp)
  4049a2:	48 89 55 e8          	mov    %rdx,-0x18(%rbp)
/home/user102/proxylab-handout/csapp.c:899
  4049a6:	48 8b 55 e8          	mov    -0x18(%rbp),%rdx
  4049aa:	48 8b 4d f0          	mov    -0x10(%rbp),%rcx
  4049ae:	8b 45 fc             	mov    -0x4(%rbp),%eax
  4049b1:	48 89 ce             	mov    %rcx,%rsi
  4049b4:	89 c7                	mov    %eax,%edi
  4049b6:	e8 a0 fc ff ff       	callq  40465b <rio_writen>
  4049bb:	48 3b 45 e8          	cmp    -0x18(%rbp),%rax
  4049bf:	74 0a                	je     4049cb <Rio_writen+0x38>
/home/user102/proxylab-handout/csapp.c:900
  4049c1:	bf 59 55 40 00       	mov    $0x405559,%edi
  4049c6:	e8 e2 e9 ff ff       	callq  4033ad <unix_error>
/home/user102/proxylab-handout/csapp.c:901
  4049cb:	90                   	nop
  4049cc:	c9                   	leaveq 
  4049cd:	c3                   	retq   

00000000004049ce <Rio_readinitb>:
Rio_readinitb():
/home/user102/proxylab-handout/csapp.c:904
  4049ce:	55                   	push   %rbp
  4049cf:	48 89 e5             	mov    %rsp,%rbp
  4049d2:	48 83 ec 10          	sub    $0x10,%rsp
  4049d6:	48 89 7d f8          	mov    %rdi,-0x8(%rbp)
  4049da:	89 75 f4             	mov    %esi,-0xc(%rbp)
/home/user102/proxylab-handout/csapp.c:905
  4049dd:	8b 55 f4             	mov    -0xc(%rbp),%edx
  4049e0:	48 8b 45 f8          	mov    -0x8(%rbp),%rax
  4049e4:	89 d6                	mov    %edx,%esi
  4049e6:	48 89 c7             	mov    %rax,%rdi
  4049e9:	e8 ec fd ff ff       	callq  4047da <rio_readinitb>
/home/user102/proxylab-handout/csapp.c:906
  4049ee:	90                   	nop
  4049ef:	c9                   	leaveq 
  4049f0:	c3                   	retq   

00000000004049f1 <Rio_readnb>:
Rio_readnb():
/home/user102/proxylab-handout/csapp.c:909
  4049f1:	55                   	push   %rbp
  4049f2:	48 89 e5             	mov    %rsp,%rbp
  4049f5:	48 83 ec 30          	sub    $0x30,%rsp
  4049f9:	48 89 7d e8          	mov    %rdi,-0x18(%rbp)
  4049fd:	48 89 75 e0          	mov    %rsi,-0x20(%rbp)
  404a01:	48 89 55 d8          	mov    %rdx,-0x28(%rbp)
/home/user102/proxylab-handout/csapp.c:912
  404a05:	48 8b 55 d8          	mov    -0x28(%rbp),%rdx
  404a09:	48 8b 4d e0          	mov    -0x20(%rbp),%rcx
  404a0d:	48 8b 45 e8          	mov    -0x18(%rbp),%rax
  404a11:	48 89 ce             	mov    %rcx,%rsi
  404a14:	48 89 c7             	mov    %rax,%rdi
  404a17:	e8 f0 fd ff ff       	callq  40480c <rio_readnb>
  404a1c:	48 89 45 f8          	mov    %rax,-0x8(%rbp)
  404a20:	48 83 7d f8 00       	cmpq   $0x0,-0x8(%rbp)
  404a25:	79 0a                	jns    404a31 <Rio_readnb+0x40>
/home/user102/proxylab-handout/csapp.c:913
  404a27:	bf 6a 55 40 00       	mov    $0x40556a,%edi
  404a2c:	e8 7c e9 ff ff       	callq  4033ad <unix_error>
/home/user102/proxylab-handout/csapp.c:914
  404a31:	48 8b 45 f8          	mov    -0x8(%rbp),%rax
/home/user102/proxylab-handout/csapp.c:915
  404a35:	c9                   	leaveq 
  404a36:	c3                   	retq   

0000000000404a37 <Rio_readlineb>:
Rio_readlineb():
/home/user102/proxylab-handout/csapp.c:918
  404a37:	55                   	push   %rbp
  404a38:	48 89 e5             	mov    %rsp,%rbp
  404a3b:	48 83 ec 30          	sub    $0x30,%rsp
  404a3f:	48 89 7d e8          	mov    %rdi,-0x18(%rbp)
  404a43:	48 89 75 e0          	mov    %rsi,-0x20(%rbp)
  404a47:	48 89 55 d8          	mov    %rdx,-0x28(%rbp)
/home/user102/proxylab-handout/csapp.c:921
  404a4b:	48 8b 55 d8          	mov    -0x28(%rbp),%rdx
  404a4f:	48 8b 4d e0          	mov    -0x20(%rbp),%rcx
  404a53:	48 8b 45 e8          	mov    -0x18(%rbp),%rax
  404a57:	48 89 ce             	mov    %rcx,%rsi
  404a5a:	48 89 c7             	mov    %rax,%rdi
  404a5d:	e8 26 fe ff ff       	callq  404888 <rio_readlineb>
  404a62:	48 89 45 f8          	mov    %rax,-0x8(%rbp)
  404a66:	48 83 7d f8 00       	cmpq   $0x0,-0x8(%rbp)
  404a6b:	79 0a                	jns    404a77 <Rio_readlineb+0x40>
/home/user102/proxylab-handout/csapp.c:922
  404a6d:	bf 7b 55 40 00       	mov    $0x40557b,%edi
  404a72:	e8 36 e9 ff ff       	callq  4033ad <unix_error>
/home/user102/proxylab-handout/csapp.c:923
  404a77:	48 8b 45 f8          	mov    -0x8(%rbp),%rax
/home/user102/proxylab-handout/csapp.c:924
  404a7b:	c9                   	leaveq 
  404a7c:	c3                   	retq   

0000000000404a7d <open_clientfd>:
open_clientfd():
/home/user102/proxylab-handout/csapp.c:939
  404a7d:	55                   	push   %rbp
  404a7e:	48 89 e5             	mov    %rsp,%rbp
  404a81:	48 83 ec 70          	sub    $0x70,%rsp
  404a85:	48 89 7d 98          	mov    %rdi,-0x68(%rbp)
  404a89:	48 89 75 90          	mov    %rsi,-0x70(%rbp)
  404a8d:	64 48 8b 04 25 28 00 	mov    %fs:0x28,%rax
  404a94:	00 00 
  404a96:	48 89 45 f8          	mov    %rax,-0x8(%rbp)
  404a9a:	31 c0                	xor    %eax,%eax
/home/user102/proxylab-handout/csapp.c:944
  404a9c:	48 8d 45 c0          	lea    -0x40(%rbp),%rax
  404aa0:	ba 30 00 00 00       	mov    $0x30,%edx
  404aa5:	be 00 00 00 00       	mov    $0x0,%esi
  404aaa:	48 89 c7             	mov    %rax,%rdi
  404aad:	e8 ce d0 ff ff       	callq  401b80 <memset@plt>
/home/user102/proxylab-handout/csapp.c:945
  404ab2:	c7 45 c8 01 00 00 00 	movl   $0x1,-0x38(%rbp)
/home/user102/proxylab-handout/csapp.c:946
  404ab9:	c7 45 c0 00 04 00 00 	movl   $0x400,-0x40(%rbp)
/home/user102/proxylab-handout/csapp.c:947
  404ac0:	8b 45 c0             	mov    -0x40(%rbp),%eax
  404ac3:	83 c8 20             	or     $0x20,%eax
  404ac6:	89 45 c0             	mov    %eax,-0x40(%rbp)
/home/user102/proxylab-handout/csapp.c:948
  404ac9:	48 8d 4d b0          	lea    -0x50(%rbp),%rcx
  404acd:	48 8d 55 c0          	lea    -0x40(%rbp),%rdx
  404ad1:	48 8b 75 90          	mov    -0x70(%rbp),%rsi
  404ad5:	48 8b 45 98          	mov    -0x68(%rbp),%rax
  404ad9:	48 89 c7             	mov    %rax,%rdi
  404adc:	e8 ef d3 ff ff       	callq  401ed0 <getaddrinfo@plt>
  404ae1:	89 45 ac             	mov    %eax,-0x54(%rbp)
  404ae4:	83 7d ac 00          	cmpl   $0x0,-0x54(%rbp)
  404ae8:	74 3b                	je     404b25 <open_clientfd+0xa8>
/home/user102/proxylab-handout/csapp.c:949
  404aea:	8b 45 ac             	mov    -0x54(%rbp),%eax
  404aed:	89 c7                	mov    %eax,%edi
  404aef:	e8 5c d0 ff ff       	callq  401b50 <gai_strerror@plt>
  404af4:	48 89 c6             	mov    %rax,%rsi
  404af7:	48 8b 05 62 28 20 00 	mov    0x202862(%rip),%rax        # 607360 <stderr@@GLIBC_2.2.5>
  404afe:	48 8b 4d 90          	mov    -0x70(%rbp),%rcx
  404b02:	48 8b 55 98          	mov    -0x68(%rbp),%rdx
  404b06:	49 89 f0             	mov    %rsi,%r8
  404b09:	be 90 55 40 00       	mov    $0x405590,%esi
  404b0e:	48 89 c7             	mov    %rax,%rdi
  404b11:	b8 00 00 00 00       	mov    $0x0,%eax
  404b16:	e8 45 d1 ff ff       	callq  401c60 <fprintf@plt>
/home/user102/proxylab-handout/csapp.c:950
  404b1b:	b8 fe ff ff ff       	mov    $0xfffffffe,%eax
  404b20:	e9 cc 00 00 00       	jmpq   404bf1 <open_clientfd+0x174>
/home/user102/proxylab-handout/csapp.c:954
  404b25:	48 8b 45 b0          	mov    -0x50(%rbp),%rax
  404b29:	48 89 45 b8          	mov    %rax,-0x48(%rbp)
  404b2d:	e9 94 00 00 00       	jmpq   404bc6 <open_clientfd+0x149>
/home/user102/proxylab-handout/csapp.c:956
  404b32:	48 8b 45 b8          	mov    -0x48(%rbp),%rax
  404b36:	8b 50 0c             	mov    0xc(%rax),%edx
  404b39:	48 8b 45 b8          	mov    -0x48(%rbp),%rax
  404b3d:	8b 48 08             	mov    0x8(%rax),%ecx
  404b40:	48 8b 45 b8          	mov    -0x48(%rbp),%rax
  404b44:	8b 40 04             	mov    0x4(%rax),%eax
  404b47:	89 ce                	mov    %ecx,%esi
  404b49:	89 c7                	mov    %eax,%edi
  404b4b:	e8 10 d4 ff ff       	callq  401f60 <socket@plt>
  404b50:	89 45 a8             	mov    %eax,-0x58(%rbp)
  404b53:	83 7d a8 00          	cmpl   $0x0,-0x58(%rbp)
  404b57:	78 60                	js     404bb9 <open_clientfd+0x13c>
/home/user102/proxylab-handout/csapp.c:960
  404b59:	48 8b 45 b8          	mov    -0x48(%rbp),%rax
  404b5d:	8b 50 10             	mov    0x10(%rax),%edx
  404b60:	48 8b 45 b8          	mov    -0x48(%rbp),%rax
  404b64:	48 8b 48 18          	mov    0x18(%rax),%rcx
  404b68:	8b 45 a8             	mov    -0x58(%rbp),%eax
  404b6b:	48 89 ce             	mov    %rcx,%rsi
  404b6e:	89 c7                	mov    %eax,%edi
  404b70:	e8 3b d3 ff ff       	callq  401eb0 <connect@plt>
  404b75:	83 f8 ff             	cmp    $0xffffffff,%eax
  404b78:	75 59                	jne    404bd3 <open_clientfd+0x156>
/home/user102/proxylab-handout/csapp.c:962
  404b7a:	8b 45 a8             	mov    -0x58(%rbp),%eax
  404b7d:	89 c7                	mov    %eax,%edi
  404b7f:	e8 1c d0 ff ff       	callq  401ba0 <close@plt>
  404b84:	85 c0                	test   %eax,%eax
  404b86:	79 32                	jns    404bba <open_clientfd+0x13d>
/home/user102/proxylab-handout/csapp.c:963
  404b88:	e8 83 ce ff ff       	callq  401a10 <__errno_location@plt>
  404b8d:	8b 00                	mov    (%rax),%eax
  404b8f:	89 c7                	mov    %eax,%edi
  404b91:	e8 5a d3 ff ff       	callq  401ef0 <strerror@plt>
  404b96:	48 89 c2             	mov    %rax,%rdx
  404b99:	48 8b 05 c0 27 20 00 	mov    0x2027c0(%rip),%rax        # 607360 <stderr@@GLIBC_2.2.5>
  404ba0:	be b0 55 40 00       	mov    $0x4055b0,%esi
  404ba5:	48 89 c7             	mov    %rax,%rdi
  404ba8:	b8 00 00 00 00       	mov    $0x0,%eax
  404bad:	e8 ae d0 ff ff       	callq  401c60 <fprintf@plt>
/home/user102/proxylab-handout/csapp.c:964
  404bb2:	b8 ff ff ff ff       	mov    $0xffffffff,%eax
  404bb7:	eb 38                	jmp    404bf1 <open_clientfd+0x174>
/home/user102/proxylab-handout/csapp.c:957
  404bb9:	90                   	nop
/home/user102/proxylab-handout/csapp.c:954 (discriminator 2)
  404bba:	48 8b 45 b8          	mov    -0x48(%rbp),%rax
  404bbe:	48 8b 40 28          	mov    0x28(%rax),%rax
  404bc2:	48 89 45 b8          	mov    %rax,-0x48(%rbp)
/home/user102/proxylab-handout/csapp.c:954 (discriminator 1)
  404bc6:	48 83 7d b8 00       	cmpq   $0x0,-0x48(%rbp)
  404bcb:	0f 85 61 ff ff ff    	jne    404b32 <open_clientfd+0xb5>
  404bd1:	eb 01                	jmp    404bd4 <open_clientfd+0x157>
/home/user102/proxylab-handout/csapp.c:961
  404bd3:	90                   	nop
/home/user102/proxylab-handout/csapp.c:969
  404bd4:	48 8b 45 b0          	mov    -0x50(%rbp),%rax
  404bd8:	48 89 c7             	mov    %rax,%rdi
  404bdb:	e8 70 d3 ff ff       	callq  401f50 <freeaddrinfo@plt>
/home/user102/proxylab-handout/csapp.c:970
  404be0:	48 83 7d b8 00       	cmpq   $0x0,-0x48(%rbp)
  404be5:	75 07                	jne    404bee <open_clientfd+0x171>
/home/user102/proxylab-handout/csapp.c:971
  404be7:	b8 ff ff ff ff       	mov    $0xffffffff,%eax
  404bec:	eb 03                	jmp    404bf1 <open_clientfd+0x174>
/home/user102/proxylab-handout/csapp.c:973
  404bee:	8b 45 a8             	mov    -0x58(%rbp),%eax
/home/user102/proxylab-handout/csapp.c:974 (discriminator 1)
  404bf1:	48 8b 4d f8          	mov    -0x8(%rbp),%rcx
  404bf5:	64 48 33 0c 25 28 00 	xor    %fs:0x28,%rcx
  404bfc:	00 00 
  404bfe:	74 05                	je     404c05 <open_clientfd+0x188>
/home/user102/proxylab-handout/csapp.c:974
  404c00:	e8 fb ce ff ff       	callq  401b00 <__stack_chk_fail@plt>
  404c05:	c9                   	leaveq 
  404c06:	c3                   	retq   

0000000000404c07 <open_listenfd>:
open_listenfd():
/home/user102/proxylab-handout/csapp.c:987
  404c07:	55                   	push   %rbp
  404c08:	48 89 e5             	mov    %rsp,%rbp
  404c0b:	48 83 ec 70          	sub    $0x70,%rsp
  404c0f:	48 89 7d 98          	mov    %rdi,-0x68(%rbp)
  404c13:	64 48 8b 04 25 28 00 	mov    %fs:0x28,%rax
  404c1a:	00 00 
  404c1c:	48 89 45 f8          	mov    %rax,-0x8(%rbp)
  404c20:	31 c0                	xor    %eax,%eax
/home/user102/proxylab-handout/csapp.c:989
  404c22:	c7 45 a4 01 00 00 00 	movl   $0x1,-0x5c(%rbp)
/home/user102/proxylab-handout/csapp.c:992
  404c29:	48 8d 45 c0          	lea    -0x40(%rbp),%rax
  404c2d:	ba 30 00 00 00       	mov    $0x30,%edx
  404c32:	be 00 00 00 00       	mov    $0x0,%esi
  404c37:	48 89 c7             	mov    %rax,%rdi
  404c3a:	e8 41 cf ff ff       	callq  401b80 <memset@plt>
/home/user102/proxylab-handout/csapp.c:993
  404c3f:	c7 45 c8 01 00 00 00 	movl   $0x1,-0x38(%rbp)
/home/user102/proxylab-handout/csapp.c:994
  404c46:	c7 45 c0 21 00 00 00 	movl   $0x21,-0x40(%rbp)
/home/user102/proxylab-handout/csapp.c:995
  404c4d:	8b 45 c0             	mov    -0x40(%rbp),%eax
  404c50:	80 cc 04             	or     $0x4,%ah
  404c53:	89 45 c0             	mov    %eax,-0x40(%rbp)
/home/user102/proxylab-handout/csapp.c:996
  404c56:	48 8d 4d b0          	lea    -0x50(%rbp),%rcx
  404c5a:	48 8d 55 c0          	lea    -0x40(%rbp),%rdx
  404c5e:	48 8b 45 98          	mov    -0x68(%rbp),%rax
  404c62:	48 89 c6             	mov    %rax,%rsi
  404c65:	bf 00 00 00 00       	mov    $0x0,%edi
  404c6a:	e8 61 d2 ff ff       	callq  401ed0 <getaddrinfo@plt>
  404c6f:	89 45 ac             	mov    %eax,-0x54(%rbp)
  404c72:	83 7d ac 00          	cmpl   $0x0,-0x54(%rbp)
  404c76:	74 34                	je     404cac <open_listenfd+0xa5>
/home/user102/proxylab-handout/csapp.c:997
  404c78:	8b 45 ac             	mov    -0x54(%rbp),%eax
  404c7b:	89 c7                	mov    %eax,%edi
  404c7d:	e8 ce ce ff ff       	callq  401b50 <gai_strerror@plt>
  404c82:	48 89 c1             	mov    %rax,%rcx
  404c85:	48 8b 05 d4 26 20 00 	mov    0x2026d4(%rip),%rax        # 607360 <stderr@@GLIBC_2.2.5>
  404c8c:	48 8b 55 98          	mov    -0x68(%rbp),%rdx
  404c90:	be d8 55 40 00       	mov    $0x4055d8,%esi
  404c95:	48 89 c7             	mov    %rax,%rdi
  404c98:	b8 00 00 00 00       	mov    $0x0,%eax
  404c9d:	e8 be cf ff ff       	callq  401c60 <fprintf@plt>
/home/user102/proxylab-handout/csapp.c:998
  404ca2:	b8 fe ff ff ff       	mov    $0xfffffffe,%eax
  404ca7:	e9 14 01 00 00       	jmpq   404dc0 <open_listenfd+0x1b9>
/home/user102/proxylab-handout/csapp.c:1002
  404cac:	48 8b 45 b0          	mov    -0x50(%rbp),%rax
  404cb0:	48 89 45 b8          	mov    %rax,-0x48(%rbp)
  404cb4:	e9 b8 00 00 00       	jmpq   404d71 <open_listenfd+0x16a>
/home/user102/proxylab-handout/csapp.c:1004
  404cb9:	48 8b 45 b8          	mov    -0x48(%rbp),%rax
  404cbd:	8b 50 0c             	mov    0xc(%rax),%edx
  404cc0:	48 8b 45 b8          	mov    -0x48(%rbp),%rax
  404cc4:	8b 48 08             	mov    0x8(%rax),%ecx
  404cc7:	48 8b 45 b8          	mov    -0x48(%rbp),%rax
  404ccb:	8b 40 04             	mov    0x4(%rax),%eax
  404cce:	89 ce                	mov    %ecx,%esi
  404cd0:	89 c7                	mov    %eax,%edi
  404cd2:	e8 89 d2 ff ff       	callq  401f60 <socket@plt>
  404cd7:	89 45 a8             	mov    %eax,-0x58(%rbp)
  404cda:	83 7d a8 00          	cmpl   $0x0,-0x58(%rbp)
  404cde:	0f 88 80 00 00 00    	js     404d64 <open_listenfd+0x15d>
/home/user102/proxylab-handout/csapp.c:1008
  404ce4:	48 8d 55 a4          	lea    -0x5c(%rbp),%rdx
  404ce8:	8b 45 a8             	mov    -0x58(%rbp),%eax
  404ceb:	41 b8 04 00 00 00    	mov    $0x4,%r8d
  404cf1:	48 89 d1             	mov    %rdx,%rcx
  404cf4:	ba 02 00 00 00       	mov    $0x2,%edx
  404cf9:	be 01 00 00 00       	mov    $0x1,%esi
  404cfe:	89 c7                	mov    %eax,%edi
  404d00:	e8 9b cd ff ff       	callq  401aa0 <setsockopt@plt>
/home/user102/proxylab-handout/csapp.c:1012
  404d05:	48 8b 45 b8          	mov    -0x48(%rbp),%rax
  404d09:	8b 50 10             	mov    0x10(%rax),%edx
  404d0c:	48 8b 45 b8          	mov    -0x48(%rbp),%rax
  404d10:	48 8b 48 18          	mov    0x18(%rax),%rcx
  404d14:	8b 45 a8             	mov    -0x58(%rbp),%eax
  404d17:	48 89 ce             	mov    %rcx,%rsi
  404d1a:	89 c7                	mov    %eax,%edi
  404d1c:	e8 7f d0 ff ff       	callq  401da0 <bind@plt>
  404d21:	85 c0                	test   %eax,%eax
  404d23:	74 59                	je     404d7e <open_listenfd+0x177>
/home/user102/proxylab-handout/csapp.c:1014
  404d25:	8b 45 a8             	mov    -0x58(%rbp),%eax
  404d28:	89 c7                	mov    %eax,%edi
  404d2a:	e8 71 ce ff ff       	callq  401ba0 <close@plt>
  404d2f:	85 c0                	test   %eax,%eax
  404d31:	79 32                	jns    404d65 <open_listenfd+0x15e>
/home/user102/proxylab-handout/csapp.c:1015
  404d33:	e8 d8 cc ff ff       	callq  401a10 <__errno_location@plt>
  404d38:	8b 00                	mov    (%rax),%eax
  404d3a:	89 c7                	mov    %eax,%edi
  404d3c:	e8 af d1 ff ff       	callq  401ef0 <strerror@plt>
  404d41:	48 89 c2             	mov    %rax,%rdx
  404d44:	48 8b 05 15 26 20 00 	mov    0x202615(%rip),%rax        # 607360 <stderr@@GLIBC_2.2.5>
  404d4b:	be 00 56 40 00       	mov    $0x405600,%esi
  404d50:	48 89 c7             	mov    %rax,%rdi
  404d53:	b8 00 00 00 00       	mov    $0x0,%eax
  404d58:	e8 03 cf ff ff       	callq  401c60 <fprintf@plt>
/home/user102/proxylab-handout/csapp.c:1016
  404d5d:	b8 ff ff ff ff       	mov    $0xffffffff,%eax
  404d62:	eb 5c                	jmp    404dc0 <open_listenfd+0x1b9>
/home/user102/proxylab-handout/csapp.c:1005
  404d64:	90                   	nop
/home/user102/proxylab-handout/csapp.c:1002 (discriminator 2)
  404d65:	48 8b 45 b8          	mov    -0x48(%rbp),%rax
  404d69:	48 8b 40 28          	mov    0x28(%rax),%rax
  404d6d:	48 89 45 b8          	mov    %rax,-0x48(%rbp)
/home/user102/proxylab-handout/csapp.c:1002 (discriminator 1)
  404d71:	48 83 7d b8 00       	cmpq   $0x0,-0x48(%rbp)
  404d76:	0f 85 3d ff ff ff    	jne    404cb9 <open_listenfd+0xb2>
  404d7c:	eb 01                	jmp    404d7f <open_listenfd+0x178>
/home/user102/proxylab-handout/csapp.c:1013
  404d7e:	90                   	nop
/home/user102/proxylab-handout/csapp.c:1022
  404d7f:	48 8b 45 b0          	mov    -0x50(%rbp),%rax
  404d83:	48 89 c7             	mov    %rax,%rdi
  404d86:	e8 c5 d1 ff ff       	callq  401f50 <freeaddrinfo@plt>
/home/user102/proxylab-handout/csapp.c:1023
  404d8b:	48 83 7d b8 00       	cmpq   $0x0,-0x48(%rbp)
  404d90:	75 07                	jne    404d99 <open_listenfd+0x192>
/home/user102/proxylab-handout/csapp.c:1024
  404d92:	b8 ff ff ff ff       	mov    $0xffffffff,%eax
  404d97:	eb 27                	jmp    404dc0 <open_listenfd+0x1b9>
/home/user102/proxylab-handout/csapp.c:1027
  404d99:	8b 45 a8             	mov    -0x58(%rbp),%eax
  404d9c:	be 00 04 00 00       	mov    $0x400,%esi
  404da1:	89 c7                	mov    %eax,%edi
  404da3:	e8 88 cf ff ff       	callq  401d30 <listen@plt>
  404da8:	85 c0                	test   %eax,%eax
  404daa:	79 11                	jns    404dbd <open_listenfd+0x1b6>
/home/user102/proxylab-handout/csapp.c:1028
  404dac:	8b 45 a8             	mov    -0x58(%rbp),%eax
  404daf:	89 c7                	mov    %eax,%edi
  404db1:	e8 ea cd ff ff       	callq  401ba0 <close@plt>
/home/user102/proxylab-handout/csapp.c:1029
  404db6:	b8 ff ff ff ff       	mov    $0xffffffff,%eax
  404dbb:	eb 03                	jmp    404dc0 <open_listenfd+0x1b9>
/home/user102/proxylab-handout/csapp.c:1031
  404dbd:	8b 45 a8             	mov    -0x58(%rbp),%eax
/home/user102/proxylab-handout/csapp.c:1032 (discriminator 1)
  404dc0:	48 8b 75 f8          	mov    -0x8(%rbp),%rsi
  404dc4:	64 48 33 34 25 28 00 	xor    %fs:0x28,%rsi
  404dcb:	00 00 
  404dcd:	74 05                	je     404dd4 <open_listenfd+0x1cd>
/home/user102/proxylab-handout/csapp.c:1032
  404dcf:	e8 2c cd ff ff       	callq  401b00 <__stack_chk_fail@plt>
  404dd4:	c9                   	leaveq 
  404dd5:	c3                   	retq   

0000000000404dd6 <Open_clientfd>:
Open_clientfd():
/home/user102/proxylab-handout/csapp.c:1039
  404dd6:	55                   	push   %rbp
  404dd7:	48 89 e5             	mov    %rsp,%rbp
  404dda:	48 83 ec 20          	sub    $0x20,%rsp
  404dde:	48 89 7d e8          	mov    %rdi,-0x18(%rbp)
  404de2:	48 89 75 e0          	mov    %rsi,-0x20(%rbp)
/home/user102/proxylab-handout/csapp.c:1042
  404de6:	48 8b 55 e0          	mov    -0x20(%rbp),%rdx
  404dea:	48 8b 45 e8          	mov    -0x18(%rbp),%rax
  404dee:	48 89 d6             	mov    %rdx,%rsi
  404df1:	48 89 c7             	mov    %rax,%rdi
  404df4:	e8 84 fc ff ff       	callq  404a7d <open_clientfd>
  404df9:	89 45 fc             	mov    %eax,-0x4(%rbp)
  404dfc:	83 7d fc 00          	cmpl   $0x0,-0x4(%rbp)
  404e00:	79 0a                	jns    404e0c <Open_clientfd+0x36>
/home/user102/proxylab-handout/csapp.c:1043
  404e02:	bf 20 56 40 00       	mov    $0x405620,%edi
  404e07:	e8 a1 e5 ff ff       	callq  4033ad <unix_error>
/home/user102/proxylab-handout/csapp.c:1044
  404e0c:	8b 45 fc             	mov    -0x4(%rbp),%eax
/home/user102/proxylab-handout/csapp.c:1045
  404e0f:	c9                   	leaveq 
  404e10:	c3                   	retq   

0000000000404e11 <Open_listenfd>:
Open_listenfd():
/home/user102/proxylab-handout/csapp.c:1048
  404e11:	55                   	push   %rbp
  404e12:	48 89 e5             	mov    %rsp,%rbp
  404e15:	48 83 ec 20          	sub    $0x20,%rsp
  404e19:	48 89 7d e8          	mov    %rdi,-0x18(%rbp)
/home/user102/proxylab-handout/csapp.c:1051
  404e1d:	48 8b 45 e8          	mov    -0x18(%rbp),%rax
  404e21:	48 89 c7             	mov    %rax,%rdi
  404e24:	e8 de fd ff ff       	callq  404c07 <open_listenfd>
  404e29:	89 45 fc             	mov    %eax,-0x4(%rbp)
  404e2c:	83 7d fc 00          	cmpl   $0x0,-0x4(%rbp)
  404e30:	79 0a                	jns    404e3c <Open_listenfd+0x2b>
/home/user102/proxylab-handout/csapp.c:1052
  404e32:	bf 34 56 40 00       	mov    $0x405634,%edi
  404e37:	e8 71 e5 ff ff       	callq  4033ad <unix_error>
/home/user102/proxylab-handout/csapp.c:1053
  404e3c:	8b 45 fc             	mov    -0x4(%rbp),%eax
/home/user102/proxylab-handout/csapp.c:1054
  404e3f:	c9                   	leaveq 
  404e40:	c3                   	retq   
  404e41:	66 2e 0f 1f 84 00 00 	nopw   %cs:0x0(%rax,%rax,1)
  404e48:	00 00 00 
  404e4b:	0f 1f 44 00 00       	nopl   0x0(%rax,%rax,1)

0000000000404e50 <__libc_csu_init>:
__libc_csu_init():
  404e50:	41 57                	push   %r15
  404e52:	41 56                	push   %r14
  404e54:	41 89 ff             	mov    %edi,%r15d
  404e57:	41 55                	push   %r13
  404e59:	41 54                	push   %r12
  404e5b:	4c 8d 25 9e 1f 20 00 	lea    0x201f9e(%rip),%r12        # 606e00 <__frame_dummy_init_array_entry>
  404e62:	55                   	push   %rbp
  404e63:	48 8d 2d 9e 1f 20 00 	lea    0x201f9e(%rip),%rbp        # 606e08 <__init_array_end>
  404e6a:	53                   	push   %rbx
  404e6b:	49 89 f6             	mov    %rsi,%r14
  404e6e:	49 89 d5             	mov    %rdx,%r13
  404e71:	4c 29 e5             	sub    %r12,%rbp
  404e74:	48 83 ec 08          	sub    $0x8,%rsp
  404e78:	48 c1 fd 03          	sar    $0x3,%rbp
  404e7c:	e8 ff ca ff ff       	callq  401980 <_init>
  404e81:	48 85 ed             	test   %rbp,%rbp
  404e84:	74 20                	je     404ea6 <__libc_csu_init+0x56>
  404e86:	31 db                	xor    %ebx,%ebx
  404e88:	0f 1f 84 00 00 00 00 	nopl   0x0(%rax,%rax,1)
  404e8f:	00 
  404e90:	4c 89 ea             	mov    %r13,%rdx
  404e93:	4c 89 f6             	mov    %r14,%rsi
  404e96:	44 89 ff             	mov    %r15d,%edi
  404e99:	41 ff 14 dc          	callq  *(%r12,%rbx,8)
  404e9d:	48 83 c3 01          	add    $0x1,%rbx
  404ea1:	48 39 eb             	cmp    %rbp,%rbx
  404ea4:	75 ea                	jne    404e90 <__libc_csu_init+0x40>
  404ea6:	48 83 c4 08          	add    $0x8,%rsp
  404eaa:	5b                   	pop    %rbx
  404eab:	5d                   	pop    %rbp
  404eac:	41 5c                	pop    %r12
  404eae:	41 5d                	pop    %r13
  404eb0:	41 5e                	pop    %r14
  404eb2:	41 5f                	pop    %r15
  404eb4:	c3                   	retq   
  404eb5:	90                   	nop
  404eb6:	66 2e 0f 1f 84 00 00 	nopw   %cs:0x0(%rax,%rax,1)
  404ebd:	00 00 00 

0000000000404ec0 <__libc_csu_fini>:
__libc_csu_fini():
  404ec0:	f3 c3                	repz retq 
  404ec2:	66 2e 0f 1f 84 00 00 	nopw   %cs:0x0(%rax,%rax,1)
  404ec9:	00 00 00 
  404ecc:	0f 1f 40 00          	nopl   0x0(%rax)

0000000000404ed0 <__stat>:
__stat():
  404ed0:	48 89 f2             	mov    %rsi,%rdx
  404ed3:	48 89 fe             	mov    %rdi,%rsi
  404ed6:	bf 01 00 00 00       	mov    $0x1,%edi
  404edb:	e9 f0 cd ff ff       	jmpq   401cd0 <__xstat@plt>

0000000000404ee0 <__fstat>:
fstat():
  404ee0:	48 89 f2             	mov    %rsi,%rdx
  404ee3:	89 fe                	mov    %edi,%esi
  404ee5:	bf 01 00 00 00       	mov    $0x1,%edi
  404eea:	e9 31 ce ff ff       	jmpq   401d20 <__fxstat@plt>

Disassembly of section .fini:

0000000000404ef0 <_fini>:
_fini():
  404ef0:	48 83 ec 08          	sub    $0x8,%rsp
  404ef4:	48 83 c4 08          	add    $0x8,%rsp
  404ef8:	c3                   	retq   
